
./apps/xv6/kernel:     file format elf64-littleriscv


Disassembly of section .text:

0000000080000000 <_entry>:
    80000000:	0000b117          	auipc	sp,0xb
    80000004:	18010113          	addi	sp,sp,384 # 8000b180 <stack0>
    80000008:	00001537          	lui	a0,0x1
    8000000c:	f14025f3          	csrr	a1,mhartid
    80000010:	00158593          	addi	a1,a1,1
    80000014:	02b50533          	mul	a0,a0,a1
    80000018:	00a10133          	add	sp,sp,a0
    8000001c:	094000ef          	jal	ra,800000b0 <start>

0000000080000020 <spin>:
    80000020:	0000006f          	j	80000020 <spin>

0000000080000024 <timerinit>:
    80000024:	ff010113          	addi	sp,sp,-16
    80000028:	00813423          	sd	s0,8(sp)
    8000002c:	01010413          	addi	s0,sp,16
    80000030:	f14027f3          	csrr	a5,mhartid
    80000034:	0007859b          	sext.w	a1,a5
    80000038:	0037979b          	slliw	a5,a5,0x3
    8000003c:	02004737          	lui	a4,0x2004
    80000040:	00e787b3          	add	a5,a5,a4
    80000044:	0200c737          	lui	a4,0x200c
    80000048:	ff873703          	ld	a4,-8(a4) # 200bff8 <_entry-0x7dff4008>
    8000004c:	000f4637          	lui	a2,0xf4
    80000050:	24060613          	addi	a2,a2,576 # f4240 <_entry-0x7ff0bdc0>
    80000054:	00c70733          	add	a4,a4,a2
    80000058:	00e7b023          	sd	a4,0(a5)
    8000005c:	00259693          	slli	a3,a1,0x2
    80000060:	00b686b3          	add	a3,a3,a1
    80000064:	00369693          	slli	a3,a3,0x3
    80000068:	0000b717          	auipc	a4,0xb
    8000006c:	fd870713          	addi	a4,a4,-40 # 8000b040 <timer_scratch>
    80000070:	00d70733          	add	a4,a4,a3
    80000074:	00f73c23          	sd	a5,24(a4)
    80000078:	02c73023          	sd	a2,32(a4)
    8000007c:	34071073          	csrw	mscratch,a4
    80000080:	00008797          	auipc	a5,0x8
    80000084:	dd078793          	addi	a5,a5,-560 # 80007e50 <timervec>
    80000088:	30579073          	csrw	mtvec,a5
    8000008c:	300027f3          	csrr	a5,mstatus
    80000090:	0087e793          	ori	a5,a5,8
    80000094:	30079073          	csrw	mstatus,a5
    80000098:	304027f3          	csrr	a5,mie
    8000009c:	0807e793          	ori	a5,a5,128
    800000a0:	30479073          	csrw	mie,a5
    800000a4:	00813403          	ld	s0,8(sp)
    800000a8:	01010113          	addi	sp,sp,16
    800000ac:	00008067          	ret

00000000800000b0 <start>:
    800000b0:	ff010113          	addi	sp,sp,-16
    800000b4:	00113423          	sd	ra,8(sp)
    800000b8:	00813023          	sd	s0,0(sp)
    800000bc:	01010413          	addi	s0,sp,16
    800000c0:	300027f3          	csrr	a5,mstatus
    800000c4:	ffffe737          	lui	a4,0xffffe
    800000c8:	7ff70713          	addi	a4,a4,2047 # ffffffffffffe7ff <end+0xffffffff7ffd67ff>
    800000cc:	00e7f7b3          	and	a5,a5,a4
    800000d0:	00001737          	lui	a4,0x1
    800000d4:	80070713          	addi	a4,a4,-2048 # 800 <_entry-0x7ffff800>
    800000d8:	00e7e7b3          	or	a5,a5,a4
    800000dc:	30079073          	csrw	mstatus,a5
    800000e0:	00001797          	auipc	a5,0x1
    800000e4:	2d878793          	addi	a5,a5,728 # 800013b8 <main>
    800000e8:	34179073          	csrw	mepc,a5
    800000ec:	00000793          	li	a5,0
    800000f0:	18079073          	csrw	satp,a5
    800000f4:	000107b7          	lui	a5,0x10
    800000f8:	fff78793          	addi	a5,a5,-1 # ffff <_entry-0x7fff0001>
    800000fc:	30279073          	csrw	medeleg,a5
    80000100:	30379073          	csrw	mideleg,a5
    80000104:	104027f3          	csrr	a5,sie
    80000108:	2227e793          	ori	a5,a5,546
    8000010c:	10479073          	csrw	sie,a5
    80000110:	fff00793          	li	a5,-1
    80000114:	00a7d793          	srli	a5,a5,0xa
    80000118:	3b079073          	csrw	pmpaddr0,a5
    8000011c:	00f00793          	li	a5,15
    80000120:	3a079073          	csrw	pmpcfg0,a5
    80000124:	00000097          	auipc	ra,0x0
    80000128:	f00080e7          	jalr	-256(ra) # 80000024 <timerinit>
    8000012c:	f14027f3          	csrr	a5,mhartid
    80000130:	0007879b          	sext.w	a5,a5
    80000134:	00078213          	mv	tp,a5
    80000138:	30200073          	mret
    8000013c:	00813083          	ld	ra,8(sp)
    80000140:	00013403          	ld	s0,0(sp)
    80000144:	01010113          	addi	sp,sp,16
    80000148:	00008067          	ret

000000008000014c <consolewrite>:
    8000014c:	fb010113          	addi	sp,sp,-80
    80000150:	04113423          	sd	ra,72(sp)
    80000154:	04813023          	sd	s0,64(sp)
    80000158:	02913c23          	sd	s1,56(sp)
    8000015c:	03213823          	sd	s2,48(sp)
    80000160:	03313423          	sd	s3,40(sp)
    80000164:	03413023          	sd	s4,32(sp)
    80000168:	01513c23          	sd	s5,24(sp)
    8000016c:	05010413          	addi	s0,sp,80
    80000170:	06c05c63          	blez	a2,800001e8 <consolewrite+0x9c>
    80000174:	00050a13          	mv	s4,a0
    80000178:	00058493          	mv	s1,a1
    8000017c:	00060993          	mv	s3,a2
    80000180:	00000913          	li	s2,0
    80000184:	fff00a93          	li	s5,-1
    80000188:	00100693          	li	a3,1
    8000018c:	00048613          	mv	a2,s1
    80000190:	000a0593          	mv	a1,s4
    80000194:	fbf40513          	addi	a0,s0,-65
    80000198:	00003097          	auipc	ra,0x3
    8000019c:	19c080e7          	jalr	412(ra) # 80003334 <either_copyin>
    800001a0:	03550063          	beq	a0,s5,800001c0 <consolewrite+0x74>
    800001a4:	fbf44503          	lbu	a0,-65(s0)
    800001a8:	00001097          	auipc	ra,0x1
    800001ac:	9c0080e7          	jalr	-1600(ra) # 80000b68 <uartputc>
    800001b0:	0019091b          	addiw	s2,s2,1
    800001b4:	00148493          	addi	s1,s1,1
    800001b8:	fd2998e3          	bne	s3,s2,80000188 <consolewrite+0x3c>
    800001bc:	00098913          	mv	s2,s3
    800001c0:	00090513          	mv	a0,s2
    800001c4:	04813083          	ld	ra,72(sp)
    800001c8:	04013403          	ld	s0,64(sp)
    800001cc:	03813483          	ld	s1,56(sp)
    800001d0:	03013903          	ld	s2,48(sp)
    800001d4:	02813983          	ld	s3,40(sp)
    800001d8:	02013a03          	ld	s4,32(sp)
    800001dc:	01813a83          	ld	s5,24(sp)
    800001e0:	05010113          	addi	sp,sp,80
    800001e4:	00008067          	ret
    800001e8:	00000913          	li	s2,0
    800001ec:	fd5ff06f          	j	800001c0 <consolewrite+0x74>

00000000800001f0 <consoleread>:
    800001f0:	f9010113          	addi	sp,sp,-112
    800001f4:	06113423          	sd	ra,104(sp)
    800001f8:	06813023          	sd	s0,96(sp)
    800001fc:	04913c23          	sd	s1,88(sp)
    80000200:	05213823          	sd	s2,80(sp)
    80000204:	05313423          	sd	s3,72(sp)
    80000208:	05413023          	sd	s4,64(sp)
    8000020c:	03513c23          	sd	s5,56(sp)
    80000210:	03613823          	sd	s6,48(sp)
    80000214:	03713423          	sd	s7,40(sp)
    80000218:	03813023          	sd	s8,32(sp)
    8000021c:	01913c23          	sd	s9,24(sp)
    80000220:	01a13823          	sd	s10,16(sp)
    80000224:	07010413          	addi	s0,sp,112
    80000228:	00050a93          	mv	s5,a0
    8000022c:	00058a13          	mv	s4,a1
    80000230:	00060993          	mv	s3,a2
    80000234:	00060b1b          	sext.w	s6,a2
    80000238:	00013517          	auipc	a0,0x13
    8000023c:	f4850513          	addi	a0,a0,-184 # 80013180 <cons>
    80000240:	00001097          	auipc	ra,0x1
    80000244:	d8c080e7          	jalr	-628(ra) # 80000fcc <acquire>
    80000248:	00013497          	auipc	s1,0x13
    8000024c:	f3848493          	addi	s1,s1,-200 # 80013180 <cons>
    80000250:	00013917          	auipc	s2,0x13
    80000254:	fc890913          	addi	s2,s2,-56 # 80013218 <cons+0x98>
    80000258:	00400b93          	li	s7,4
    8000025c:	fff00c13          	li	s8,-1
    80000260:	00a00c93          	li	s9,10
    80000264:	09305263          	blez	s3,800002e8 <consoleread+0xf8>
    80000268:	0984a783          	lw	a5,152(s1)
    8000026c:	09c4a703          	lw	a4,156(s1)
    80000270:	02f71863          	bne	a4,a5,800002a0 <consoleread+0xb0>
    80000274:	00002097          	auipc	ra,0x2
    80000278:	1c8080e7          	jalr	456(ra) # 8000243c <myproc>
    8000027c:	02852783          	lw	a5,40(a0)
    80000280:	08079063          	bnez	a5,80000300 <consoleread+0x110>
    80000284:	00048593          	mv	a1,s1
    80000288:	00090513          	mv	a0,s2
    8000028c:	00003097          	auipc	ra,0x3
    80000290:	b20080e7          	jalr	-1248(ra) # 80002dac <sleep>
    80000294:	0984a783          	lw	a5,152(s1)
    80000298:	09c4a703          	lw	a4,156(s1)
    8000029c:	fcf70ce3          	beq	a4,a5,80000274 <consoleread+0x84>
    800002a0:	0017871b          	addiw	a4,a5,1
    800002a4:	08e4ac23          	sw	a4,152(s1)
    800002a8:	07f7f713          	andi	a4,a5,127
    800002ac:	00e48733          	add	a4,s1,a4
    800002b0:	01874703          	lbu	a4,24(a4)
    800002b4:	00070d1b          	sext.w	s10,a4
    800002b8:	097d0a63          	beq	s10,s7,8000034c <consoleread+0x15c>
    800002bc:	f8e40fa3          	sb	a4,-97(s0)
    800002c0:	00100693          	li	a3,1
    800002c4:	f9f40613          	addi	a2,s0,-97
    800002c8:	000a0593          	mv	a1,s4
    800002cc:	000a8513          	mv	a0,s5
    800002d0:	00003097          	auipc	ra,0x3
    800002d4:	fd4080e7          	jalr	-44(ra) # 800032a4 <either_copyout>
    800002d8:	01850863          	beq	a0,s8,800002e8 <consoleread+0xf8>
    800002dc:	001a0a13          	addi	s4,s4,1
    800002e0:	fff9899b          	addiw	s3,s3,-1
    800002e4:	f99d10e3          	bne	s10,s9,80000264 <consoleread+0x74>
    800002e8:	00013517          	auipc	a0,0x13
    800002ec:	e9850513          	addi	a0,a0,-360 # 80013180 <cons>
    800002f0:	00001097          	auipc	ra,0x1
    800002f4:	dd4080e7          	jalr	-556(ra) # 800010c4 <release>
    800002f8:	413b053b          	subw	a0,s6,s3
    800002fc:	0180006f          	j	80000314 <consoleread+0x124>
    80000300:	00013517          	auipc	a0,0x13
    80000304:	e8050513          	addi	a0,a0,-384 # 80013180 <cons>
    80000308:	00001097          	auipc	ra,0x1
    8000030c:	dbc080e7          	jalr	-580(ra) # 800010c4 <release>
    80000310:	fff00513          	li	a0,-1
    80000314:	06813083          	ld	ra,104(sp)
    80000318:	06013403          	ld	s0,96(sp)
    8000031c:	05813483          	ld	s1,88(sp)
    80000320:	05013903          	ld	s2,80(sp)
    80000324:	04813983          	ld	s3,72(sp)
    80000328:	04013a03          	ld	s4,64(sp)
    8000032c:	03813a83          	ld	s5,56(sp)
    80000330:	03013b03          	ld	s6,48(sp)
    80000334:	02813b83          	ld	s7,40(sp)
    80000338:	02013c03          	ld	s8,32(sp)
    8000033c:	01813c83          	ld	s9,24(sp)
    80000340:	01013d03          	ld	s10,16(sp)
    80000344:	07010113          	addi	sp,sp,112
    80000348:	00008067          	ret
    8000034c:	0009871b          	sext.w	a4,s3
    80000350:	f9677ce3          	bgeu	a4,s6,800002e8 <consoleread+0xf8>
    80000354:	00013717          	auipc	a4,0x13
    80000358:	ecf72223          	sw	a5,-316(a4) # 80013218 <cons+0x98>
    8000035c:	f8dff06f          	j	800002e8 <consoleread+0xf8>

0000000080000360 <consputc>:
    80000360:	ff010113          	addi	sp,sp,-16
    80000364:	00113423          	sd	ra,8(sp)
    80000368:	00813023          	sd	s0,0(sp)
    8000036c:	01010413          	addi	s0,sp,16
    80000370:	10000793          	li	a5,256
    80000374:	00f50e63          	beq	a0,a5,80000390 <consputc+0x30>
    80000378:	00000097          	auipc	ra,0x0
    8000037c:	6d0080e7          	jalr	1744(ra) # 80000a48 <uartputc_sync>
    80000380:	00813083          	ld	ra,8(sp)
    80000384:	00013403          	ld	s0,0(sp)
    80000388:	01010113          	addi	sp,sp,16
    8000038c:	00008067          	ret
    80000390:	00800513          	li	a0,8
    80000394:	00000097          	auipc	ra,0x0
    80000398:	6b4080e7          	jalr	1716(ra) # 80000a48 <uartputc_sync>
    8000039c:	02000513          	li	a0,32
    800003a0:	00000097          	auipc	ra,0x0
    800003a4:	6a8080e7          	jalr	1704(ra) # 80000a48 <uartputc_sync>
    800003a8:	00800513          	li	a0,8
    800003ac:	00000097          	auipc	ra,0x0
    800003b0:	69c080e7          	jalr	1692(ra) # 80000a48 <uartputc_sync>
    800003b4:	fcdff06f          	j	80000380 <consputc+0x20>

00000000800003b8 <consoleintr>:
    800003b8:	fe010113          	addi	sp,sp,-32
    800003bc:	00113c23          	sd	ra,24(sp)
    800003c0:	00813823          	sd	s0,16(sp)
    800003c4:	00913423          	sd	s1,8(sp)
    800003c8:	01213023          	sd	s2,0(sp)
    800003cc:	02010413          	addi	s0,sp,32
    800003d0:	00050493          	mv	s1,a0
    800003d4:	00013517          	auipc	a0,0x13
    800003d8:	dac50513          	addi	a0,a0,-596 # 80013180 <cons>
    800003dc:	00001097          	auipc	ra,0x1
    800003e0:	bf0080e7          	jalr	-1040(ra) # 80000fcc <acquire>
    800003e4:	01500793          	li	a5,21
    800003e8:	0cf48663          	beq	s1,a5,800004b4 <consoleintr+0xfc>
    800003ec:	0497c263          	blt	a5,s1,80000430 <consoleintr+0x78>
    800003f0:	00800793          	li	a5,8
    800003f4:	10f48a63          	beq	s1,a5,80000508 <consoleintr+0x150>
    800003f8:	01000793          	li	a5,16
    800003fc:	12f49e63          	bne	s1,a5,80000538 <consoleintr+0x180>
    80000400:	00003097          	auipc	ra,0x3
    80000404:	fc4080e7          	jalr	-60(ra) # 800033c4 <procdump>
    80000408:	00013517          	auipc	a0,0x13
    8000040c:	d7850513          	addi	a0,a0,-648 # 80013180 <cons>
    80000410:	00001097          	auipc	ra,0x1
    80000414:	cb4080e7          	jalr	-844(ra) # 800010c4 <release>
    80000418:	01813083          	ld	ra,24(sp)
    8000041c:	01013403          	ld	s0,16(sp)
    80000420:	00813483          	ld	s1,8(sp)
    80000424:	00013903          	ld	s2,0(sp)
    80000428:	02010113          	addi	sp,sp,32
    8000042c:	00008067          	ret
    80000430:	07f00793          	li	a5,127
    80000434:	0cf48a63          	beq	s1,a5,80000508 <consoleintr+0x150>
    80000438:	00013717          	auipc	a4,0x13
    8000043c:	d4870713          	addi	a4,a4,-696 # 80013180 <cons>
    80000440:	0a072783          	lw	a5,160(a4)
    80000444:	09872703          	lw	a4,152(a4)
    80000448:	40e787bb          	subw	a5,a5,a4
    8000044c:	07f00713          	li	a4,127
    80000450:	faf76ce3          	bltu	a4,a5,80000408 <consoleintr+0x50>
    80000454:	00d00793          	li	a5,13
    80000458:	0ef48463          	beq	s1,a5,80000540 <consoleintr+0x188>
    8000045c:	00048513          	mv	a0,s1
    80000460:	00000097          	auipc	ra,0x0
    80000464:	f00080e7          	jalr	-256(ra) # 80000360 <consputc>
    80000468:	00013797          	auipc	a5,0x13
    8000046c:	d1878793          	addi	a5,a5,-744 # 80013180 <cons>
    80000470:	0a07a703          	lw	a4,160(a5)
    80000474:	0017069b          	addiw	a3,a4,1
    80000478:	0006861b          	sext.w	a2,a3
    8000047c:	0ad7a023          	sw	a3,160(a5)
    80000480:	07f77713          	andi	a4,a4,127
    80000484:	00e787b3          	add	a5,a5,a4
    80000488:	00978c23          	sb	s1,24(a5)
    8000048c:	00a00793          	li	a5,10
    80000490:	0ef48263          	beq	s1,a5,80000574 <consoleintr+0x1bc>
    80000494:	00400793          	li	a5,4
    80000498:	0cf48e63          	beq	s1,a5,80000574 <consoleintr+0x1bc>
    8000049c:	00013797          	auipc	a5,0x13
    800004a0:	d7c7a783          	lw	a5,-644(a5) # 80013218 <cons+0x98>
    800004a4:	0807879b          	addiw	a5,a5,128
    800004a8:	f6f610e3          	bne	a2,a5,80000408 <consoleintr+0x50>
    800004ac:	00078613          	mv	a2,a5
    800004b0:	0c40006f          	j	80000574 <consoleintr+0x1bc>
    800004b4:	00013717          	auipc	a4,0x13
    800004b8:	ccc70713          	addi	a4,a4,-820 # 80013180 <cons>
    800004bc:	0a072783          	lw	a5,160(a4)
    800004c0:	09c72703          	lw	a4,156(a4)
    800004c4:	00013497          	auipc	s1,0x13
    800004c8:	cbc48493          	addi	s1,s1,-836 # 80013180 <cons>
    800004cc:	00a00913          	li	s2,10
    800004d0:	f2f70ce3          	beq	a4,a5,80000408 <consoleintr+0x50>
    800004d4:	fff7879b          	addiw	a5,a5,-1
    800004d8:	07f7f713          	andi	a4,a5,127
    800004dc:	00e48733          	add	a4,s1,a4
    800004e0:	01874703          	lbu	a4,24(a4)
    800004e4:	f32702e3          	beq	a4,s2,80000408 <consoleintr+0x50>
    800004e8:	0af4a023          	sw	a5,160(s1)
    800004ec:	10000513          	li	a0,256
    800004f0:	00000097          	auipc	ra,0x0
    800004f4:	e70080e7          	jalr	-400(ra) # 80000360 <consputc>
    800004f8:	0a04a783          	lw	a5,160(s1)
    800004fc:	09c4a703          	lw	a4,156(s1)
    80000500:	fcf71ae3          	bne	a4,a5,800004d4 <consoleintr+0x11c>
    80000504:	f05ff06f          	j	80000408 <consoleintr+0x50>
    80000508:	00013717          	auipc	a4,0x13
    8000050c:	c7870713          	addi	a4,a4,-904 # 80013180 <cons>
    80000510:	0a072783          	lw	a5,160(a4)
    80000514:	09c72703          	lw	a4,156(a4)
    80000518:	eef708e3          	beq	a4,a5,80000408 <consoleintr+0x50>
    8000051c:	fff7879b          	addiw	a5,a5,-1
    80000520:	00013717          	auipc	a4,0x13
    80000524:	d0f72023          	sw	a5,-768(a4) # 80013220 <cons+0xa0>
    80000528:	10000513          	li	a0,256
    8000052c:	00000097          	auipc	ra,0x0
    80000530:	e34080e7          	jalr	-460(ra) # 80000360 <consputc>
    80000534:	ed5ff06f          	j	80000408 <consoleintr+0x50>
    80000538:	ec0488e3          	beqz	s1,80000408 <consoleintr+0x50>
    8000053c:	efdff06f          	j	80000438 <consoleintr+0x80>
    80000540:	00a00513          	li	a0,10
    80000544:	00000097          	auipc	ra,0x0
    80000548:	e1c080e7          	jalr	-484(ra) # 80000360 <consputc>
    8000054c:	00013797          	auipc	a5,0x13
    80000550:	c3478793          	addi	a5,a5,-972 # 80013180 <cons>
    80000554:	0a07a703          	lw	a4,160(a5)
    80000558:	0017069b          	addiw	a3,a4,1
    8000055c:	0006861b          	sext.w	a2,a3
    80000560:	0ad7a023          	sw	a3,160(a5)
    80000564:	07f77713          	andi	a4,a4,127
    80000568:	00e787b3          	add	a5,a5,a4
    8000056c:	00a00713          	li	a4,10
    80000570:	00e78c23          	sb	a4,24(a5)
    80000574:	00013797          	auipc	a5,0x13
    80000578:	cac7a423          	sw	a2,-856(a5) # 8001321c <cons+0x9c>
    8000057c:	00013517          	auipc	a0,0x13
    80000580:	c9c50513          	addi	a0,a0,-868 # 80013218 <cons+0x98>
    80000584:	00003097          	auipc	ra,0x3
    80000588:	a48080e7          	jalr	-1464(ra) # 80002fcc <wakeup>
    8000058c:	e7dff06f          	j	80000408 <consoleintr+0x50>

0000000080000590 <consoleinit>:
    80000590:	ff010113          	addi	sp,sp,-16
    80000594:	00113423          	sd	ra,8(sp)
    80000598:	00813023          	sd	s0,0(sp)
    8000059c:	01010413          	addi	s0,sp,16
    800005a0:	0000a597          	auipc	a1,0xa
    800005a4:	a7058593          	addi	a1,a1,-1424 # 8000a010 <etext+0x10>
    800005a8:	00013517          	auipc	a0,0x13
    800005ac:	bd850513          	addi	a0,a0,-1064 # 80013180 <cons>
    800005b0:	00001097          	auipc	ra,0x1
    800005b4:	938080e7          	jalr	-1736(ra) # 80000ee8 <initlock>
    800005b8:	00000097          	auipc	ra,0x0
    800005bc:	42c080e7          	jalr	1068(ra) # 800009e4 <uartinit>
    800005c0:	00023797          	auipc	a5,0x23
    800005c4:	d5878793          	addi	a5,a5,-680 # 80023318 <devsw>
    800005c8:	00000717          	auipc	a4,0x0
    800005cc:	c2870713          	addi	a4,a4,-984 # 800001f0 <consoleread>
    800005d0:	00e7b823          	sd	a4,16(a5)
    800005d4:	00000717          	auipc	a4,0x0
    800005d8:	b7870713          	addi	a4,a4,-1160 # 8000014c <consolewrite>
    800005dc:	00e7bc23          	sd	a4,24(a5)
    800005e0:	00813083          	ld	ra,8(sp)
    800005e4:	00013403          	ld	s0,0(sp)
    800005e8:	01010113          	addi	sp,sp,16
    800005ec:	00008067          	ret

00000000800005f0 <printint>:
    800005f0:	fd010113          	addi	sp,sp,-48
    800005f4:	02113423          	sd	ra,40(sp)
    800005f8:	02813023          	sd	s0,32(sp)
    800005fc:	00913c23          	sd	s1,24(sp)
    80000600:	01213823          	sd	s2,16(sp)
    80000604:	03010413          	addi	s0,sp,48
    80000608:	00060463          	beqz	a2,80000610 <printint+0x20>
    8000060c:	0a054c63          	bltz	a0,800006c4 <printint+0xd4>
    80000610:	0005051b          	sext.w	a0,a0
    80000614:	00000893          	li	a7,0
    80000618:	fd040693          	addi	a3,s0,-48
    8000061c:	00000713          	li	a4,0
    80000620:	0005859b          	sext.w	a1,a1
    80000624:	0000a617          	auipc	a2,0xa
    80000628:	a1c60613          	addi	a2,a2,-1508 # 8000a040 <digits>
    8000062c:	00070813          	mv	a6,a4
    80000630:	0017071b          	addiw	a4,a4,1
    80000634:	02b577bb          	remuw	a5,a0,a1
    80000638:	02079793          	slli	a5,a5,0x20
    8000063c:	0207d793          	srli	a5,a5,0x20
    80000640:	00f607b3          	add	a5,a2,a5
    80000644:	0007c783          	lbu	a5,0(a5)
    80000648:	00f68023          	sb	a5,0(a3)
    8000064c:	0005079b          	sext.w	a5,a0
    80000650:	02b5553b          	divuw	a0,a0,a1
    80000654:	00168693          	addi	a3,a3,1
    80000658:	fcb7fae3          	bgeu	a5,a1,8000062c <printint+0x3c>
    8000065c:	00088c63          	beqz	a7,80000674 <printint+0x84>
    80000660:	fe070793          	addi	a5,a4,-32
    80000664:	00878733          	add	a4,a5,s0
    80000668:	02d00793          	li	a5,45
    8000066c:	fef70823          	sb	a5,-16(a4)
    80000670:	0028071b          	addiw	a4,a6,2
    80000674:	02e05c63          	blez	a4,800006ac <printint+0xbc>
    80000678:	fd040793          	addi	a5,s0,-48
    8000067c:	00e784b3          	add	s1,a5,a4
    80000680:	fff78913          	addi	s2,a5,-1
    80000684:	00e90933          	add	s2,s2,a4
    80000688:	fff7071b          	addiw	a4,a4,-1
    8000068c:	02071713          	slli	a4,a4,0x20
    80000690:	02075713          	srli	a4,a4,0x20
    80000694:	40e90933          	sub	s2,s2,a4
    80000698:	fff4c503          	lbu	a0,-1(s1)
    8000069c:	00000097          	auipc	ra,0x0
    800006a0:	cc4080e7          	jalr	-828(ra) # 80000360 <consputc>
    800006a4:	fff48493          	addi	s1,s1,-1
    800006a8:	ff2498e3          	bne	s1,s2,80000698 <printint+0xa8>
    800006ac:	02813083          	ld	ra,40(sp)
    800006b0:	02013403          	ld	s0,32(sp)
    800006b4:	01813483          	ld	s1,24(sp)
    800006b8:	01013903          	ld	s2,16(sp)
    800006bc:	03010113          	addi	sp,sp,48
    800006c0:	00008067          	ret
    800006c4:	40a0053b          	negw	a0,a0
    800006c8:	00100893          	li	a7,1
    800006cc:	f4dff06f          	j	80000618 <printint+0x28>

00000000800006d0 <panic>:
    800006d0:	fe010113          	addi	sp,sp,-32
    800006d4:	00113c23          	sd	ra,24(sp)
    800006d8:	00813823          	sd	s0,16(sp)
    800006dc:	00913423          	sd	s1,8(sp)
    800006e0:	02010413          	addi	s0,sp,32
    800006e4:	00050493          	mv	s1,a0
    800006e8:	00013797          	auipc	a5,0x13
    800006ec:	b407ac23          	sw	zero,-1192(a5) # 80013240 <pr+0x18>
    800006f0:	0000a517          	auipc	a0,0xa
    800006f4:	92850513          	addi	a0,a0,-1752 # 8000a018 <etext+0x18>
    800006f8:	00000097          	auipc	ra,0x0
    800006fc:	034080e7          	jalr	52(ra) # 8000072c <printf>
    80000700:	00048513          	mv	a0,s1
    80000704:	00000097          	auipc	ra,0x0
    80000708:	028080e7          	jalr	40(ra) # 8000072c <printf>
    8000070c:	0000a517          	auipc	a0,0xa
    80000710:	9bc50513          	addi	a0,a0,-1604 # 8000a0c8 <digits+0x88>
    80000714:	00000097          	auipc	ra,0x0
    80000718:	018080e7          	jalr	24(ra) # 8000072c <printf>
    8000071c:	00100793          	li	a5,1
    80000720:	0000b717          	auipc	a4,0xb
    80000724:	8ef72023          	sw	a5,-1824(a4) # 8000b000 <panicked>
    80000728:	0000006f          	j	80000728 <panic+0x58>

000000008000072c <printf>:
    8000072c:	f4010113          	addi	sp,sp,-192
    80000730:	06113c23          	sd	ra,120(sp)
    80000734:	06813823          	sd	s0,112(sp)
    80000738:	06913423          	sd	s1,104(sp)
    8000073c:	07213023          	sd	s2,96(sp)
    80000740:	05313c23          	sd	s3,88(sp)
    80000744:	05413823          	sd	s4,80(sp)
    80000748:	05513423          	sd	s5,72(sp)
    8000074c:	05613023          	sd	s6,64(sp)
    80000750:	03713c23          	sd	s7,56(sp)
    80000754:	03813823          	sd	s8,48(sp)
    80000758:	03913423          	sd	s9,40(sp)
    8000075c:	03a13023          	sd	s10,32(sp)
    80000760:	01b13c23          	sd	s11,24(sp)
    80000764:	08010413          	addi	s0,sp,128
    80000768:	00050a13          	mv	s4,a0
    8000076c:	00b43423          	sd	a1,8(s0)
    80000770:	00c43823          	sd	a2,16(s0)
    80000774:	00d43c23          	sd	a3,24(s0)
    80000778:	02e43023          	sd	a4,32(s0)
    8000077c:	02f43423          	sd	a5,40(s0)
    80000780:	03043823          	sd	a6,48(s0)
    80000784:	03143c23          	sd	a7,56(s0)
    80000788:	00013d97          	auipc	s11,0x13
    8000078c:	ab8dad83          	lw	s11,-1352(s11) # 80013240 <pr+0x18>
    80000790:	020d9e63          	bnez	s11,800007cc <printf+0xa0>
    80000794:	040a0663          	beqz	s4,800007e0 <printf+0xb4>
    80000798:	00840793          	addi	a5,s0,8
    8000079c:	f8f43423          	sd	a5,-120(s0)
    800007a0:	000a4503          	lbu	a0,0(s4)
    800007a4:	1a050063          	beqz	a0,80000944 <printf+0x218>
    800007a8:	00000993          	li	s3,0
    800007ac:	02500a93          	li	s5,37
    800007b0:	07000b93          	li	s7,112
    800007b4:	01000d13          	li	s10,16
    800007b8:	0000ab17          	auipc	s6,0xa
    800007bc:	888b0b13          	addi	s6,s6,-1912 # 8000a040 <digits>
    800007c0:	07300c93          	li	s9,115
    800007c4:	06400c13          	li	s8,100
    800007c8:	0400006f          	j	80000808 <printf+0xdc>
    800007cc:	00013517          	auipc	a0,0x13
    800007d0:	a5c50513          	addi	a0,a0,-1444 # 80013228 <pr>
    800007d4:	00000097          	auipc	ra,0x0
    800007d8:	7f8080e7          	jalr	2040(ra) # 80000fcc <acquire>
    800007dc:	fb9ff06f          	j	80000794 <printf+0x68>
    800007e0:	0000a517          	auipc	a0,0xa
    800007e4:	84850513          	addi	a0,a0,-1976 # 8000a028 <etext+0x28>
    800007e8:	00000097          	auipc	ra,0x0
    800007ec:	ee8080e7          	jalr	-280(ra) # 800006d0 <panic>
    800007f0:	00000097          	auipc	ra,0x0
    800007f4:	b70080e7          	jalr	-1168(ra) # 80000360 <consputc>
    800007f8:	0019899b          	addiw	s3,s3,1
    800007fc:	013a07b3          	add	a5,s4,s3
    80000800:	0007c503          	lbu	a0,0(a5)
    80000804:	14050063          	beqz	a0,80000944 <printf+0x218>
    80000808:	ff5514e3          	bne	a0,s5,800007f0 <printf+0xc4>
    8000080c:	0019899b          	addiw	s3,s3,1
    80000810:	013a07b3          	add	a5,s4,s3
    80000814:	0007c783          	lbu	a5,0(a5)
    80000818:	0007849b          	sext.w	s1,a5
    8000081c:	12078463          	beqz	a5,80000944 <printf+0x218>
    80000820:	07778263          	beq	a5,s7,80000884 <printf+0x158>
    80000824:	02fbfa63          	bgeu	s7,a5,80000858 <printf+0x12c>
    80000828:	0b978663          	beq	a5,s9,800008d4 <printf+0x1a8>
    8000082c:	07800713          	li	a4,120
    80000830:	0ee79c63          	bne	a5,a4,80000928 <printf+0x1fc>
    80000834:	f8843783          	ld	a5,-120(s0)
    80000838:	00878713          	addi	a4,a5,8
    8000083c:	f8e43423          	sd	a4,-120(s0)
    80000840:	00100613          	li	a2,1
    80000844:	000d0593          	mv	a1,s10
    80000848:	0007a503          	lw	a0,0(a5)
    8000084c:	00000097          	auipc	ra,0x0
    80000850:	da4080e7          	jalr	-604(ra) # 800005f0 <printint>
    80000854:	fa5ff06f          	j	800007f8 <printf+0xcc>
    80000858:	0d578063          	beq	a5,s5,80000918 <printf+0x1ec>
    8000085c:	0d879663          	bne	a5,s8,80000928 <printf+0x1fc>
    80000860:	f8843783          	ld	a5,-120(s0)
    80000864:	00878713          	addi	a4,a5,8
    80000868:	f8e43423          	sd	a4,-120(s0)
    8000086c:	00100613          	li	a2,1
    80000870:	00a00593          	li	a1,10
    80000874:	0007a503          	lw	a0,0(a5)
    80000878:	00000097          	auipc	ra,0x0
    8000087c:	d78080e7          	jalr	-648(ra) # 800005f0 <printint>
    80000880:	f79ff06f          	j	800007f8 <printf+0xcc>
    80000884:	f8843783          	ld	a5,-120(s0)
    80000888:	00878713          	addi	a4,a5,8
    8000088c:	f8e43423          	sd	a4,-120(s0)
    80000890:	0007b903          	ld	s2,0(a5)
    80000894:	03000513          	li	a0,48
    80000898:	00000097          	auipc	ra,0x0
    8000089c:	ac8080e7          	jalr	-1336(ra) # 80000360 <consputc>
    800008a0:	07800513          	li	a0,120
    800008a4:	00000097          	auipc	ra,0x0
    800008a8:	abc080e7          	jalr	-1348(ra) # 80000360 <consputc>
    800008ac:	000d0493          	mv	s1,s10
    800008b0:	03c95793          	srli	a5,s2,0x3c
    800008b4:	00fb07b3          	add	a5,s6,a5
    800008b8:	0007c503          	lbu	a0,0(a5)
    800008bc:	00000097          	auipc	ra,0x0
    800008c0:	aa4080e7          	jalr	-1372(ra) # 80000360 <consputc>
    800008c4:	00491913          	slli	s2,s2,0x4
    800008c8:	fff4849b          	addiw	s1,s1,-1
    800008cc:	fe0492e3          	bnez	s1,800008b0 <printf+0x184>
    800008d0:	f29ff06f          	j	800007f8 <printf+0xcc>
    800008d4:	f8843783          	ld	a5,-120(s0)
    800008d8:	00878713          	addi	a4,a5,8
    800008dc:	f8e43423          	sd	a4,-120(s0)
    800008e0:	0007b483          	ld	s1,0(a5)
    800008e4:	02048263          	beqz	s1,80000908 <printf+0x1dc>
    800008e8:	0004c503          	lbu	a0,0(s1)
    800008ec:	f00506e3          	beqz	a0,800007f8 <printf+0xcc>
    800008f0:	00000097          	auipc	ra,0x0
    800008f4:	a70080e7          	jalr	-1424(ra) # 80000360 <consputc>
    800008f8:	00148493          	addi	s1,s1,1
    800008fc:	0004c503          	lbu	a0,0(s1)
    80000900:	fe0518e3          	bnez	a0,800008f0 <printf+0x1c4>
    80000904:	ef5ff06f          	j	800007f8 <printf+0xcc>
    80000908:	00009497          	auipc	s1,0x9
    8000090c:	71848493          	addi	s1,s1,1816 # 8000a020 <etext+0x20>
    80000910:	02800513          	li	a0,40
    80000914:	fddff06f          	j	800008f0 <printf+0x1c4>
    80000918:	000a8513          	mv	a0,s5
    8000091c:	00000097          	auipc	ra,0x0
    80000920:	a44080e7          	jalr	-1468(ra) # 80000360 <consputc>
    80000924:	ed5ff06f          	j	800007f8 <printf+0xcc>
    80000928:	000a8513          	mv	a0,s5
    8000092c:	00000097          	auipc	ra,0x0
    80000930:	a34080e7          	jalr	-1484(ra) # 80000360 <consputc>
    80000934:	00048513          	mv	a0,s1
    80000938:	00000097          	auipc	ra,0x0
    8000093c:	a28080e7          	jalr	-1496(ra) # 80000360 <consputc>
    80000940:	eb9ff06f          	j	800007f8 <printf+0xcc>
    80000944:	040d9063          	bnez	s11,80000984 <printf+0x258>
    80000948:	07813083          	ld	ra,120(sp)
    8000094c:	07013403          	ld	s0,112(sp)
    80000950:	06813483          	ld	s1,104(sp)
    80000954:	06013903          	ld	s2,96(sp)
    80000958:	05813983          	ld	s3,88(sp)
    8000095c:	05013a03          	ld	s4,80(sp)
    80000960:	04813a83          	ld	s5,72(sp)
    80000964:	04013b03          	ld	s6,64(sp)
    80000968:	03813b83          	ld	s7,56(sp)
    8000096c:	03013c03          	ld	s8,48(sp)
    80000970:	02813c83          	ld	s9,40(sp)
    80000974:	02013d03          	ld	s10,32(sp)
    80000978:	01813d83          	ld	s11,24(sp)
    8000097c:	0c010113          	addi	sp,sp,192
    80000980:	00008067          	ret
    80000984:	00013517          	auipc	a0,0x13
    80000988:	8a450513          	addi	a0,a0,-1884 # 80013228 <pr>
    8000098c:	00000097          	auipc	ra,0x0
    80000990:	738080e7          	jalr	1848(ra) # 800010c4 <release>
    80000994:	fb5ff06f          	j	80000948 <printf+0x21c>

0000000080000998 <printfinit>:
    80000998:	fe010113          	addi	sp,sp,-32
    8000099c:	00113c23          	sd	ra,24(sp)
    800009a0:	00813823          	sd	s0,16(sp)
    800009a4:	00913423          	sd	s1,8(sp)
    800009a8:	02010413          	addi	s0,sp,32
    800009ac:	00013497          	auipc	s1,0x13
    800009b0:	87c48493          	addi	s1,s1,-1924 # 80013228 <pr>
    800009b4:	00009597          	auipc	a1,0x9
    800009b8:	68458593          	addi	a1,a1,1668 # 8000a038 <etext+0x38>
    800009bc:	00048513          	mv	a0,s1
    800009c0:	00000097          	auipc	ra,0x0
    800009c4:	528080e7          	jalr	1320(ra) # 80000ee8 <initlock>
    800009c8:	00100793          	li	a5,1
    800009cc:	00f4ac23          	sw	a5,24(s1)
    800009d0:	01813083          	ld	ra,24(sp)
    800009d4:	01013403          	ld	s0,16(sp)
    800009d8:	00813483          	ld	s1,8(sp)
    800009dc:	02010113          	addi	sp,sp,32
    800009e0:	00008067          	ret

00000000800009e4 <uartinit>:
    800009e4:	ff010113          	addi	sp,sp,-16
    800009e8:	00113423          	sd	ra,8(sp)
    800009ec:	00813023          	sd	s0,0(sp)
    800009f0:	01010413          	addi	s0,sp,16
    800009f4:	100007b7          	lui	a5,0x10000
    800009f8:	000780a3          	sb	zero,1(a5) # 10000001 <_entry-0x6fffffff>
    800009fc:	f8000713          	li	a4,-128
    80000a00:	00e781a3          	sb	a4,3(a5)
    80000a04:	00300713          	li	a4,3
    80000a08:	00e78023          	sb	a4,0(a5)
    80000a0c:	000780a3          	sb	zero,1(a5)
    80000a10:	00e781a3          	sb	a4,3(a5)
    80000a14:	00700693          	li	a3,7
    80000a18:	00d78123          	sb	a3,2(a5)
    80000a1c:	00e780a3          	sb	a4,1(a5)
    80000a20:	00009597          	auipc	a1,0x9
    80000a24:	63858593          	addi	a1,a1,1592 # 8000a058 <digits+0x18>
    80000a28:	00013517          	auipc	a0,0x13
    80000a2c:	82050513          	addi	a0,a0,-2016 # 80013248 <uart_tx_lock>
    80000a30:	00000097          	auipc	ra,0x0
    80000a34:	4b8080e7          	jalr	1208(ra) # 80000ee8 <initlock>
    80000a38:	00813083          	ld	ra,8(sp)
    80000a3c:	00013403          	ld	s0,0(sp)
    80000a40:	01010113          	addi	sp,sp,16
    80000a44:	00008067          	ret

0000000080000a48 <uartputc_sync>:
    80000a48:	fe010113          	addi	sp,sp,-32
    80000a4c:	00113c23          	sd	ra,24(sp)
    80000a50:	00813823          	sd	s0,16(sp)
    80000a54:	00913423          	sd	s1,8(sp)
    80000a58:	02010413          	addi	s0,sp,32
    80000a5c:	00050493          	mv	s1,a0
    80000a60:	00000097          	auipc	ra,0x0
    80000a64:	4f8080e7          	jalr	1272(ra) # 80000f58 <push_off>
    80000a68:	0000a797          	auipc	a5,0xa
    80000a6c:	5987a783          	lw	a5,1432(a5) # 8000b000 <panicked>
    80000a70:	10000737          	lui	a4,0x10000
    80000a74:	00078463          	beqz	a5,80000a7c <uartputc_sync+0x34>
    80000a78:	0000006f          	j	80000a78 <uartputc_sync+0x30>
    80000a7c:	00574783          	lbu	a5,5(a4) # 10000005 <_entry-0x6ffffffb>
    80000a80:	0207f793          	andi	a5,a5,32
    80000a84:	fe078ce3          	beqz	a5,80000a7c <uartputc_sync+0x34>
    80000a88:	0ff4f513          	zext.b	a0,s1
    80000a8c:	100007b7          	lui	a5,0x10000
    80000a90:	00a78023          	sb	a0,0(a5) # 10000000 <_entry-0x70000000>
    80000a94:	00000097          	auipc	ra,0x0
    80000a98:	5b0080e7          	jalr	1456(ra) # 80001044 <pop_off>
    80000a9c:	01813083          	ld	ra,24(sp)
    80000aa0:	01013403          	ld	s0,16(sp)
    80000aa4:	00813483          	ld	s1,8(sp)
    80000aa8:	02010113          	addi	sp,sp,32
    80000aac:	00008067          	ret

0000000080000ab0 <uartstart>:
    80000ab0:	0000a797          	auipc	a5,0xa
    80000ab4:	5587b783          	ld	a5,1368(a5) # 8000b008 <uart_tx_r>
    80000ab8:	0000a717          	auipc	a4,0xa
    80000abc:	55873703          	ld	a4,1368(a4) # 8000b010 <uart_tx_w>
    80000ac0:	0af70263          	beq	a4,a5,80000b64 <uartstart+0xb4>
    80000ac4:	fc010113          	addi	sp,sp,-64
    80000ac8:	02113c23          	sd	ra,56(sp)
    80000acc:	02813823          	sd	s0,48(sp)
    80000ad0:	02913423          	sd	s1,40(sp)
    80000ad4:	03213023          	sd	s2,32(sp)
    80000ad8:	01313c23          	sd	s3,24(sp)
    80000adc:	01413823          	sd	s4,16(sp)
    80000ae0:	01513423          	sd	s5,8(sp)
    80000ae4:	04010413          	addi	s0,sp,64
    80000ae8:	10000937          	lui	s2,0x10000
    80000aec:	00012a17          	auipc	s4,0x12
    80000af0:	75ca0a13          	addi	s4,s4,1884 # 80013248 <uart_tx_lock>
    80000af4:	0000a497          	auipc	s1,0xa
    80000af8:	51448493          	addi	s1,s1,1300 # 8000b008 <uart_tx_r>
    80000afc:	0000a997          	auipc	s3,0xa
    80000b00:	51498993          	addi	s3,s3,1300 # 8000b010 <uart_tx_w>
    80000b04:	00594703          	lbu	a4,5(s2) # 10000005 <_entry-0x6ffffffb>
    80000b08:	02077713          	andi	a4,a4,32
    80000b0c:	02070a63          	beqz	a4,80000b40 <uartstart+0x90>
    80000b10:	01f7f713          	andi	a4,a5,31
    80000b14:	00ea0733          	add	a4,s4,a4
    80000b18:	01874a83          	lbu	s5,24(a4)
    80000b1c:	00178793          	addi	a5,a5,1
    80000b20:	00f4b023          	sd	a5,0(s1)
    80000b24:	00048513          	mv	a0,s1
    80000b28:	00002097          	auipc	ra,0x2
    80000b2c:	4a4080e7          	jalr	1188(ra) # 80002fcc <wakeup>
    80000b30:	01590023          	sb	s5,0(s2)
    80000b34:	0004b783          	ld	a5,0(s1)
    80000b38:	0009b703          	ld	a4,0(s3)
    80000b3c:	fcf714e3          	bne	a4,a5,80000b04 <uartstart+0x54>
    80000b40:	03813083          	ld	ra,56(sp)
    80000b44:	03013403          	ld	s0,48(sp)
    80000b48:	02813483          	ld	s1,40(sp)
    80000b4c:	02013903          	ld	s2,32(sp)
    80000b50:	01813983          	ld	s3,24(sp)
    80000b54:	01013a03          	ld	s4,16(sp)
    80000b58:	00813a83          	ld	s5,8(sp)
    80000b5c:	04010113          	addi	sp,sp,64
    80000b60:	00008067          	ret
    80000b64:	00008067          	ret

0000000080000b68 <uartputc>:
    80000b68:	fd010113          	addi	sp,sp,-48
    80000b6c:	02113423          	sd	ra,40(sp)
    80000b70:	02813023          	sd	s0,32(sp)
    80000b74:	00913c23          	sd	s1,24(sp)
    80000b78:	01213823          	sd	s2,16(sp)
    80000b7c:	01313423          	sd	s3,8(sp)
    80000b80:	01413023          	sd	s4,0(sp)
    80000b84:	03010413          	addi	s0,sp,48
    80000b88:	00050a13          	mv	s4,a0
    80000b8c:	00012517          	auipc	a0,0x12
    80000b90:	6bc50513          	addi	a0,a0,1724 # 80013248 <uart_tx_lock>
    80000b94:	00000097          	auipc	ra,0x0
    80000b98:	438080e7          	jalr	1080(ra) # 80000fcc <acquire>
    80000b9c:	0000a797          	auipc	a5,0xa
    80000ba0:	4647a783          	lw	a5,1124(a5) # 8000b000 <panicked>
    80000ba4:	00078463          	beqz	a5,80000bac <uartputc+0x44>
    80000ba8:	0000006f          	j	80000ba8 <uartputc+0x40>
    80000bac:	0000a717          	auipc	a4,0xa
    80000bb0:	46473703          	ld	a4,1124(a4) # 8000b010 <uart_tx_w>
    80000bb4:	0000a797          	auipc	a5,0xa
    80000bb8:	4547b783          	ld	a5,1108(a5) # 8000b008 <uart_tx_r>
    80000bbc:	02078793          	addi	a5,a5,32
    80000bc0:	02e79e63          	bne	a5,a4,80000bfc <uartputc+0x94>
    80000bc4:	00012997          	auipc	s3,0x12
    80000bc8:	68498993          	addi	s3,s3,1668 # 80013248 <uart_tx_lock>
    80000bcc:	0000a497          	auipc	s1,0xa
    80000bd0:	43c48493          	addi	s1,s1,1084 # 8000b008 <uart_tx_r>
    80000bd4:	0000a917          	auipc	s2,0xa
    80000bd8:	43c90913          	addi	s2,s2,1084 # 8000b010 <uart_tx_w>
    80000bdc:	00098593          	mv	a1,s3
    80000be0:	00048513          	mv	a0,s1
    80000be4:	00002097          	auipc	ra,0x2
    80000be8:	1c8080e7          	jalr	456(ra) # 80002dac <sleep>
    80000bec:	00093703          	ld	a4,0(s2)
    80000bf0:	0004b783          	ld	a5,0(s1)
    80000bf4:	02078793          	addi	a5,a5,32
    80000bf8:	fee782e3          	beq	a5,a4,80000bdc <uartputc+0x74>
    80000bfc:	00012497          	auipc	s1,0x12
    80000c00:	64c48493          	addi	s1,s1,1612 # 80013248 <uart_tx_lock>
    80000c04:	01f77793          	andi	a5,a4,31
    80000c08:	00f487b3          	add	a5,s1,a5
    80000c0c:	01478c23          	sb	s4,24(a5)
    80000c10:	00170713          	addi	a4,a4,1
    80000c14:	0000a797          	auipc	a5,0xa
    80000c18:	3ee7be23          	sd	a4,1020(a5) # 8000b010 <uart_tx_w>
    80000c1c:	00000097          	auipc	ra,0x0
    80000c20:	e94080e7          	jalr	-364(ra) # 80000ab0 <uartstart>
    80000c24:	00048513          	mv	a0,s1
    80000c28:	00000097          	auipc	ra,0x0
    80000c2c:	49c080e7          	jalr	1180(ra) # 800010c4 <release>
    80000c30:	02813083          	ld	ra,40(sp)
    80000c34:	02013403          	ld	s0,32(sp)
    80000c38:	01813483          	ld	s1,24(sp)
    80000c3c:	01013903          	ld	s2,16(sp)
    80000c40:	00813983          	ld	s3,8(sp)
    80000c44:	00013a03          	ld	s4,0(sp)
    80000c48:	03010113          	addi	sp,sp,48
    80000c4c:	00008067          	ret

0000000080000c50 <uartgetc>:
    80000c50:	ff010113          	addi	sp,sp,-16
    80000c54:	00813423          	sd	s0,8(sp)
    80000c58:	01010413          	addi	s0,sp,16
    80000c5c:	100007b7          	lui	a5,0x10000
    80000c60:	0057c783          	lbu	a5,5(a5) # 10000005 <_entry-0x6ffffffb>
    80000c64:	0017f793          	andi	a5,a5,1
    80000c68:	00078c63          	beqz	a5,80000c80 <uartgetc+0x30>
    80000c6c:	100007b7          	lui	a5,0x10000
    80000c70:	0007c503          	lbu	a0,0(a5) # 10000000 <_entry-0x70000000>
    80000c74:	00813403          	ld	s0,8(sp)
    80000c78:	01010113          	addi	sp,sp,16
    80000c7c:	00008067          	ret
    80000c80:	fff00513          	li	a0,-1
    80000c84:	ff1ff06f          	j	80000c74 <uartgetc+0x24>

0000000080000c88 <uartintr>:
    80000c88:	fe010113          	addi	sp,sp,-32
    80000c8c:	00113c23          	sd	ra,24(sp)
    80000c90:	00813823          	sd	s0,16(sp)
    80000c94:	00913423          	sd	s1,8(sp)
    80000c98:	02010413          	addi	s0,sp,32
    80000c9c:	fff00493          	li	s1,-1
    80000ca0:	00c0006f          	j	80000cac <uartintr+0x24>
    80000ca4:	fffff097          	auipc	ra,0xfffff
    80000ca8:	714080e7          	jalr	1812(ra) # 800003b8 <consoleintr>
    80000cac:	00000097          	auipc	ra,0x0
    80000cb0:	fa4080e7          	jalr	-92(ra) # 80000c50 <uartgetc>
    80000cb4:	fe9518e3          	bne	a0,s1,80000ca4 <uartintr+0x1c>
    80000cb8:	00012497          	auipc	s1,0x12
    80000cbc:	59048493          	addi	s1,s1,1424 # 80013248 <uart_tx_lock>
    80000cc0:	00048513          	mv	a0,s1
    80000cc4:	00000097          	auipc	ra,0x0
    80000cc8:	308080e7          	jalr	776(ra) # 80000fcc <acquire>
    80000ccc:	00000097          	auipc	ra,0x0
    80000cd0:	de4080e7          	jalr	-540(ra) # 80000ab0 <uartstart>
    80000cd4:	00048513          	mv	a0,s1
    80000cd8:	00000097          	auipc	ra,0x0
    80000cdc:	3ec080e7          	jalr	1004(ra) # 800010c4 <release>
    80000ce0:	01813083          	ld	ra,24(sp)
    80000ce4:	01013403          	ld	s0,16(sp)
    80000ce8:	00813483          	ld	s1,8(sp)
    80000cec:	02010113          	addi	sp,sp,32
    80000cf0:	00008067          	ret

0000000080000cf4 <kfree>:
    80000cf4:	fe010113          	addi	sp,sp,-32
    80000cf8:	00113c23          	sd	ra,24(sp)
    80000cfc:	00813823          	sd	s0,16(sp)
    80000d00:	00913423          	sd	s1,8(sp)
    80000d04:	01213023          	sd	s2,0(sp)
    80000d08:	02010413          	addi	s0,sp,32
    80000d0c:	03451793          	slli	a5,a0,0x34
    80000d10:	06079a63          	bnez	a5,80000d84 <kfree+0x90>
    80000d14:	00050493          	mv	s1,a0
    80000d18:	00027797          	auipc	a5,0x27
    80000d1c:	2e878793          	addi	a5,a5,744 # 80028000 <end>
    80000d20:	06f56263          	bltu	a0,a5,80000d84 <kfree+0x90>
    80000d24:	01100793          	li	a5,17
    80000d28:	01b79793          	slli	a5,a5,0x1b
    80000d2c:	04f57c63          	bgeu	a0,a5,80000d84 <kfree+0x90>
    80000d30:	00001637          	lui	a2,0x1
    80000d34:	00100593          	li	a1,1
    80000d38:	00000097          	auipc	ra,0x0
    80000d3c:	3ec080e7          	jalr	1004(ra) # 80001124 <memset>
    80000d40:	00012917          	auipc	s2,0x12
    80000d44:	54090913          	addi	s2,s2,1344 # 80013280 <kmem>
    80000d48:	00090513          	mv	a0,s2
    80000d4c:	00000097          	auipc	ra,0x0
    80000d50:	280080e7          	jalr	640(ra) # 80000fcc <acquire>
    80000d54:	01893783          	ld	a5,24(s2)
    80000d58:	00f4b023          	sd	a5,0(s1)
    80000d5c:	00993c23          	sd	s1,24(s2)
    80000d60:	00090513          	mv	a0,s2
    80000d64:	00000097          	auipc	ra,0x0
    80000d68:	360080e7          	jalr	864(ra) # 800010c4 <release>
    80000d6c:	01813083          	ld	ra,24(sp)
    80000d70:	01013403          	ld	s0,16(sp)
    80000d74:	00813483          	ld	s1,8(sp)
    80000d78:	00013903          	ld	s2,0(sp)
    80000d7c:	02010113          	addi	sp,sp,32
    80000d80:	00008067          	ret
    80000d84:	00009517          	auipc	a0,0x9
    80000d88:	2dc50513          	addi	a0,a0,732 # 8000a060 <digits+0x20>
    80000d8c:	00000097          	auipc	ra,0x0
    80000d90:	944080e7          	jalr	-1724(ra) # 800006d0 <panic>

0000000080000d94 <freerange>:
    80000d94:	fd010113          	addi	sp,sp,-48
    80000d98:	02113423          	sd	ra,40(sp)
    80000d9c:	02813023          	sd	s0,32(sp)
    80000da0:	00913c23          	sd	s1,24(sp)
    80000da4:	01213823          	sd	s2,16(sp)
    80000da8:	01313423          	sd	s3,8(sp)
    80000dac:	01413023          	sd	s4,0(sp)
    80000db0:	03010413          	addi	s0,sp,48
    80000db4:	000017b7          	lui	a5,0x1
    80000db8:	fff78713          	addi	a4,a5,-1 # fff <_entry-0x7ffff001>
    80000dbc:	00e504b3          	add	s1,a0,a4
    80000dc0:	fffff737          	lui	a4,0xfffff
    80000dc4:	00e4f4b3          	and	s1,s1,a4
    80000dc8:	00f484b3          	add	s1,s1,a5
    80000dcc:	0295e263          	bltu	a1,s1,80000df0 <freerange+0x5c>
    80000dd0:	00058913          	mv	s2,a1
    80000dd4:	fffffa37          	lui	s4,0xfffff
    80000dd8:	000019b7          	lui	s3,0x1
    80000ddc:	01448533          	add	a0,s1,s4
    80000de0:	00000097          	auipc	ra,0x0
    80000de4:	f14080e7          	jalr	-236(ra) # 80000cf4 <kfree>
    80000de8:	013484b3          	add	s1,s1,s3
    80000dec:	fe9978e3          	bgeu	s2,s1,80000ddc <freerange+0x48>
    80000df0:	02813083          	ld	ra,40(sp)
    80000df4:	02013403          	ld	s0,32(sp)
    80000df8:	01813483          	ld	s1,24(sp)
    80000dfc:	01013903          	ld	s2,16(sp)
    80000e00:	00813983          	ld	s3,8(sp)
    80000e04:	00013a03          	ld	s4,0(sp)
    80000e08:	03010113          	addi	sp,sp,48
    80000e0c:	00008067          	ret

0000000080000e10 <kinit>:
    80000e10:	ff010113          	addi	sp,sp,-16
    80000e14:	00113423          	sd	ra,8(sp)
    80000e18:	00813023          	sd	s0,0(sp)
    80000e1c:	01010413          	addi	s0,sp,16
    80000e20:	00009597          	auipc	a1,0x9
    80000e24:	24858593          	addi	a1,a1,584 # 8000a068 <digits+0x28>
    80000e28:	00012517          	auipc	a0,0x12
    80000e2c:	45850513          	addi	a0,a0,1112 # 80013280 <kmem>
    80000e30:	00000097          	auipc	ra,0x0
    80000e34:	0b8080e7          	jalr	184(ra) # 80000ee8 <initlock>
    80000e38:	01100593          	li	a1,17
    80000e3c:	01b59593          	slli	a1,a1,0x1b
    80000e40:	00027517          	auipc	a0,0x27
    80000e44:	1c050513          	addi	a0,a0,448 # 80028000 <end>
    80000e48:	00000097          	auipc	ra,0x0
    80000e4c:	f4c080e7          	jalr	-180(ra) # 80000d94 <freerange>
    80000e50:	00813083          	ld	ra,8(sp)
    80000e54:	00013403          	ld	s0,0(sp)
    80000e58:	01010113          	addi	sp,sp,16
    80000e5c:	00008067          	ret

0000000080000e60 <kalloc>:
    80000e60:	fe010113          	addi	sp,sp,-32
    80000e64:	00113c23          	sd	ra,24(sp)
    80000e68:	00813823          	sd	s0,16(sp)
    80000e6c:	00913423          	sd	s1,8(sp)
    80000e70:	02010413          	addi	s0,sp,32
    80000e74:	00012497          	auipc	s1,0x12
    80000e78:	40c48493          	addi	s1,s1,1036 # 80013280 <kmem>
    80000e7c:	00048513          	mv	a0,s1
    80000e80:	00000097          	auipc	ra,0x0
    80000e84:	14c080e7          	jalr	332(ra) # 80000fcc <acquire>
    80000e88:	0184b483          	ld	s1,24(s1)
    80000e8c:	04048463          	beqz	s1,80000ed4 <kalloc+0x74>
    80000e90:	0004b783          	ld	a5,0(s1)
    80000e94:	00012517          	auipc	a0,0x12
    80000e98:	3ec50513          	addi	a0,a0,1004 # 80013280 <kmem>
    80000e9c:	00f53c23          	sd	a5,24(a0)
    80000ea0:	00000097          	auipc	ra,0x0
    80000ea4:	224080e7          	jalr	548(ra) # 800010c4 <release>
    80000ea8:	00001637          	lui	a2,0x1
    80000eac:	00500593          	li	a1,5
    80000eb0:	00048513          	mv	a0,s1
    80000eb4:	00000097          	auipc	ra,0x0
    80000eb8:	270080e7          	jalr	624(ra) # 80001124 <memset>
    80000ebc:	00048513          	mv	a0,s1
    80000ec0:	01813083          	ld	ra,24(sp)
    80000ec4:	01013403          	ld	s0,16(sp)
    80000ec8:	00813483          	ld	s1,8(sp)
    80000ecc:	02010113          	addi	sp,sp,32
    80000ed0:	00008067          	ret
    80000ed4:	00012517          	auipc	a0,0x12
    80000ed8:	3ac50513          	addi	a0,a0,940 # 80013280 <kmem>
    80000edc:	00000097          	auipc	ra,0x0
    80000ee0:	1e8080e7          	jalr	488(ra) # 800010c4 <release>
    80000ee4:	fd9ff06f          	j	80000ebc <kalloc+0x5c>

0000000080000ee8 <initlock>:
    80000ee8:	ff010113          	addi	sp,sp,-16
    80000eec:	00813423          	sd	s0,8(sp)
    80000ef0:	01010413          	addi	s0,sp,16
    80000ef4:	00b53423          	sd	a1,8(a0)
    80000ef8:	00052023          	sw	zero,0(a0)
    80000efc:	00053823          	sd	zero,16(a0)
    80000f00:	00813403          	ld	s0,8(sp)
    80000f04:	01010113          	addi	sp,sp,16
    80000f08:	00008067          	ret

0000000080000f0c <holding>:
    80000f0c:	00052783          	lw	a5,0(a0)
    80000f10:	00079663          	bnez	a5,80000f1c <holding+0x10>
    80000f14:	00000513          	li	a0,0
    80000f18:	00008067          	ret
    80000f1c:	fe010113          	addi	sp,sp,-32
    80000f20:	00113c23          	sd	ra,24(sp)
    80000f24:	00813823          	sd	s0,16(sp)
    80000f28:	00913423          	sd	s1,8(sp)
    80000f2c:	02010413          	addi	s0,sp,32
    80000f30:	01053483          	ld	s1,16(a0)
    80000f34:	00001097          	auipc	ra,0x1
    80000f38:	4d8080e7          	jalr	1240(ra) # 8000240c <mycpu>
    80000f3c:	40a48533          	sub	a0,s1,a0
    80000f40:	00153513          	seqz	a0,a0
    80000f44:	01813083          	ld	ra,24(sp)
    80000f48:	01013403          	ld	s0,16(sp)
    80000f4c:	00813483          	ld	s1,8(sp)
    80000f50:	02010113          	addi	sp,sp,32
    80000f54:	00008067          	ret

0000000080000f58 <push_off>:
    80000f58:	fe010113          	addi	sp,sp,-32
    80000f5c:	00113c23          	sd	ra,24(sp)
    80000f60:	00813823          	sd	s0,16(sp)
    80000f64:	00913423          	sd	s1,8(sp)
    80000f68:	02010413          	addi	s0,sp,32
    80000f6c:	100024f3          	csrr	s1,sstatus
    80000f70:	100027f3          	csrr	a5,sstatus
    80000f74:	ffd7f793          	andi	a5,a5,-3
    80000f78:	10079073          	csrw	sstatus,a5
    80000f7c:	00001097          	auipc	ra,0x1
    80000f80:	490080e7          	jalr	1168(ra) # 8000240c <mycpu>
    80000f84:	07852783          	lw	a5,120(a0)
    80000f88:	02078663          	beqz	a5,80000fb4 <push_off+0x5c>
    80000f8c:	00001097          	auipc	ra,0x1
    80000f90:	480080e7          	jalr	1152(ra) # 8000240c <mycpu>
    80000f94:	07852783          	lw	a5,120(a0)
    80000f98:	0017879b          	addiw	a5,a5,1
    80000f9c:	06f52c23          	sw	a5,120(a0)
    80000fa0:	01813083          	ld	ra,24(sp)
    80000fa4:	01013403          	ld	s0,16(sp)
    80000fa8:	00813483          	ld	s1,8(sp)
    80000fac:	02010113          	addi	sp,sp,32
    80000fb0:	00008067          	ret
    80000fb4:	00001097          	auipc	ra,0x1
    80000fb8:	458080e7          	jalr	1112(ra) # 8000240c <mycpu>
    80000fbc:	0014d493          	srli	s1,s1,0x1
    80000fc0:	0014f493          	andi	s1,s1,1
    80000fc4:	06952e23          	sw	s1,124(a0)
    80000fc8:	fc5ff06f          	j	80000f8c <push_off+0x34>

0000000080000fcc <acquire>:
    80000fcc:	fe010113          	addi	sp,sp,-32
    80000fd0:	00113c23          	sd	ra,24(sp)
    80000fd4:	00813823          	sd	s0,16(sp)
    80000fd8:	00913423          	sd	s1,8(sp)
    80000fdc:	02010413          	addi	s0,sp,32
    80000fe0:	00050493          	mv	s1,a0
    80000fe4:	00000097          	auipc	ra,0x0
    80000fe8:	f74080e7          	jalr	-140(ra) # 80000f58 <push_off>
    80000fec:	00048513          	mv	a0,s1
    80000ff0:	00000097          	auipc	ra,0x0
    80000ff4:	f1c080e7          	jalr	-228(ra) # 80000f0c <holding>
    80000ff8:	00100713          	li	a4,1
    80000ffc:	02051c63          	bnez	a0,80001034 <acquire+0x68>
    80001000:	00070793          	mv	a5,a4
    80001004:	0cf4a7af          	amoswap.w.aq	a5,a5,(s1)
    80001008:	0007879b          	sext.w	a5,a5
    8000100c:	fe079ae3          	bnez	a5,80001000 <acquire+0x34>
    80001010:	0ff0000f          	fence
    80001014:	00001097          	auipc	ra,0x1
    80001018:	3f8080e7          	jalr	1016(ra) # 8000240c <mycpu>
    8000101c:	00a4b823          	sd	a0,16(s1)
    80001020:	01813083          	ld	ra,24(sp)
    80001024:	01013403          	ld	s0,16(sp)
    80001028:	00813483          	ld	s1,8(sp)
    8000102c:	02010113          	addi	sp,sp,32
    80001030:	00008067          	ret
    80001034:	00009517          	auipc	a0,0x9
    80001038:	03c50513          	addi	a0,a0,60 # 8000a070 <digits+0x30>
    8000103c:	fffff097          	auipc	ra,0xfffff
    80001040:	694080e7          	jalr	1684(ra) # 800006d0 <panic>

0000000080001044 <pop_off>:
    80001044:	ff010113          	addi	sp,sp,-16
    80001048:	00113423          	sd	ra,8(sp)
    8000104c:	00813023          	sd	s0,0(sp)
    80001050:	01010413          	addi	s0,sp,16
    80001054:	00001097          	auipc	ra,0x1
    80001058:	3b8080e7          	jalr	952(ra) # 8000240c <mycpu>
    8000105c:	100027f3          	csrr	a5,sstatus
    80001060:	0027f793          	andi	a5,a5,2
    80001064:	04079063          	bnez	a5,800010a4 <pop_off+0x60>
    80001068:	07852783          	lw	a5,120(a0)
    8000106c:	04f05463          	blez	a5,800010b4 <pop_off+0x70>
    80001070:	fff7879b          	addiw	a5,a5,-1
    80001074:	0007871b          	sext.w	a4,a5
    80001078:	06f52c23          	sw	a5,120(a0)
    8000107c:	00071c63          	bnez	a4,80001094 <pop_off+0x50>
    80001080:	07c52783          	lw	a5,124(a0)
    80001084:	00078863          	beqz	a5,80001094 <pop_off+0x50>
    80001088:	100027f3          	csrr	a5,sstatus
    8000108c:	0027e793          	ori	a5,a5,2
    80001090:	10079073          	csrw	sstatus,a5
    80001094:	00813083          	ld	ra,8(sp)
    80001098:	00013403          	ld	s0,0(sp)
    8000109c:	01010113          	addi	sp,sp,16
    800010a0:	00008067          	ret
    800010a4:	00009517          	auipc	a0,0x9
    800010a8:	fd450513          	addi	a0,a0,-44 # 8000a078 <digits+0x38>
    800010ac:	fffff097          	auipc	ra,0xfffff
    800010b0:	624080e7          	jalr	1572(ra) # 800006d0 <panic>
    800010b4:	00009517          	auipc	a0,0x9
    800010b8:	fdc50513          	addi	a0,a0,-36 # 8000a090 <digits+0x50>
    800010bc:	fffff097          	auipc	ra,0xfffff
    800010c0:	614080e7          	jalr	1556(ra) # 800006d0 <panic>

00000000800010c4 <release>:
    800010c4:	fe010113          	addi	sp,sp,-32
    800010c8:	00113c23          	sd	ra,24(sp)
    800010cc:	00813823          	sd	s0,16(sp)
    800010d0:	00913423          	sd	s1,8(sp)
    800010d4:	02010413          	addi	s0,sp,32
    800010d8:	00050493          	mv	s1,a0
    800010dc:	00000097          	auipc	ra,0x0
    800010e0:	e30080e7          	jalr	-464(ra) # 80000f0c <holding>
    800010e4:	02050863          	beqz	a0,80001114 <release+0x50>
    800010e8:	0004b823          	sd	zero,16(s1)
    800010ec:	0ff0000f          	fence
    800010f0:	0f50000f          	fence	iorw,ow
    800010f4:	0804a02f          	amoswap.w	zero,zero,(s1)
    800010f8:	00000097          	auipc	ra,0x0
    800010fc:	f4c080e7          	jalr	-180(ra) # 80001044 <pop_off>
    80001100:	01813083          	ld	ra,24(sp)
    80001104:	01013403          	ld	s0,16(sp)
    80001108:	00813483          	ld	s1,8(sp)
    8000110c:	02010113          	addi	sp,sp,32
    80001110:	00008067          	ret
    80001114:	00009517          	auipc	a0,0x9
    80001118:	f8450513          	addi	a0,a0,-124 # 8000a098 <digits+0x58>
    8000111c:	fffff097          	auipc	ra,0xfffff
    80001120:	5b4080e7          	jalr	1460(ra) # 800006d0 <panic>

0000000080001124 <memset>:
    80001124:	ff010113          	addi	sp,sp,-16
    80001128:	00813423          	sd	s0,8(sp)
    8000112c:	01010413          	addi	s0,sp,16
    80001130:	02060063          	beqz	a2,80001150 <memset+0x2c>
    80001134:	00050793          	mv	a5,a0
    80001138:	02061613          	slli	a2,a2,0x20
    8000113c:	02065613          	srli	a2,a2,0x20
    80001140:	00a60733          	add	a4,a2,a0
    80001144:	00b78023          	sb	a1,0(a5)
    80001148:	00178793          	addi	a5,a5,1
    8000114c:	fee79ce3          	bne	a5,a4,80001144 <memset+0x20>
    80001150:	00813403          	ld	s0,8(sp)
    80001154:	01010113          	addi	sp,sp,16
    80001158:	00008067          	ret

000000008000115c <memcmp>:
    8000115c:	ff010113          	addi	sp,sp,-16
    80001160:	00813423          	sd	s0,8(sp)
    80001164:	01010413          	addi	s0,sp,16
    80001168:	04060463          	beqz	a2,800011b0 <memcmp+0x54>
    8000116c:	fff6069b          	addiw	a3,a2,-1 # fff <_entry-0x7ffff001>
    80001170:	02069693          	slli	a3,a3,0x20
    80001174:	0206d693          	srli	a3,a3,0x20
    80001178:	00168693          	addi	a3,a3,1
    8000117c:	00d506b3          	add	a3,a0,a3
    80001180:	00054783          	lbu	a5,0(a0)
    80001184:	0005c703          	lbu	a4,0(a1)
    80001188:	00e79c63          	bne	a5,a4,800011a0 <memcmp+0x44>
    8000118c:	00150513          	addi	a0,a0,1
    80001190:	00158593          	addi	a1,a1,1
    80001194:	fed516e3          	bne	a0,a3,80001180 <memcmp+0x24>
    80001198:	00000513          	li	a0,0
    8000119c:	0080006f          	j	800011a4 <memcmp+0x48>
    800011a0:	40e7853b          	subw	a0,a5,a4
    800011a4:	00813403          	ld	s0,8(sp)
    800011a8:	01010113          	addi	sp,sp,16
    800011ac:	00008067          	ret
    800011b0:	00000513          	li	a0,0
    800011b4:	ff1ff06f          	j	800011a4 <memcmp+0x48>

00000000800011b8 <memmove>:
    800011b8:	ff010113          	addi	sp,sp,-16
    800011bc:	00813423          	sd	s0,8(sp)
    800011c0:	01010413          	addi	s0,sp,16
    800011c4:	02060663          	beqz	a2,800011f0 <memmove+0x38>
    800011c8:	02a5ea63          	bltu	a1,a0,800011fc <memmove+0x44>
    800011cc:	02061613          	slli	a2,a2,0x20
    800011d0:	02065613          	srli	a2,a2,0x20
    800011d4:	00c587b3          	add	a5,a1,a2
    800011d8:	00050713          	mv	a4,a0
    800011dc:	00158593          	addi	a1,a1,1
    800011e0:	00170713          	addi	a4,a4,1 # fffffffffffff001 <end+0xffffffff7ffd7001>
    800011e4:	fff5c683          	lbu	a3,-1(a1)
    800011e8:	fed70fa3          	sb	a3,-1(a4)
    800011ec:	fef598e3          	bne	a1,a5,800011dc <memmove+0x24>
    800011f0:	00813403          	ld	s0,8(sp)
    800011f4:	01010113          	addi	sp,sp,16
    800011f8:	00008067          	ret
    800011fc:	02061693          	slli	a3,a2,0x20
    80001200:	0206d693          	srli	a3,a3,0x20
    80001204:	00d58733          	add	a4,a1,a3
    80001208:	fce572e3          	bgeu	a0,a4,800011cc <memmove+0x14>
    8000120c:	00d506b3          	add	a3,a0,a3
    80001210:	fff6079b          	addiw	a5,a2,-1
    80001214:	02079793          	slli	a5,a5,0x20
    80001218:	0207d793          	srli	a5,a5,0x20
    8000121c:	fff7c793          	not	a5,a5
    80001220:	00f707b3          	add	a5,a4,a5
    80001224:	fff70713          	addi	a4,a4,-1
    80001228:	fff68693          	addi	a3,a3,-1
    8000122c:	00074603          	lbu	a2,0(a4)
    80001230:	00c68023          	sb	a2,0(a3)
    80001234:	fee798e3          	bne	a5,a4,80001224 <memmove+0x6c>
    80001238:	fb9ff06f          	j	800011f0 <memmove+0x38>

000000008000123c <memcpy>:
    8000123c:	ff010113          	addi	sp,sp,-16
    80001240:	00113423          	sd	ra,8(sp)
    80001244:	00813023          	sd	s0,0(sp)
    80001248:	01010413          	addi	s0,sp,16
    8000124c:	00000097          	auipc	ra,0x0
    80001250:	f6c080e7          	jalr	-148(ra) # 800011b8 <memmove>
    80001254:	00813083          	ld	ra,8(sp)
    80001258:	00013403          	ld	s0,0(sp)
    8000125c:	01010113          	addi	sp,sp,16
    80001260:	00008067          	ret

0000000080001264 <strncmp>:
    80001264:	ff010113          	addi	sp,sp,-16
    80001268:	00813423          	sd	s0,8(sp)
    8000126c:	01010413          	addi	s0,sp,16
    80001270:	02060663          	beqz	a2,8000129c <strncmp+0x38>
    80001274:	00054783          	lbu	a5,0(a0)
    80001278:	02078663          	beqz	a5,800012a4 <strncmp+0x40>
    8000127c:	0005c703          	lbu	a4,0(a1)
    80001280:	02f71263          	bne	a4,a5,800012a4 <strncmp+0x40>
    80001284:	fff6061b          	addiw	a2,a2,-1
    80001288:	00150513          	addi	a0,a0,1
    8000128c:	00158593          	addi	a1,a1,1
    80001290:	fe0612e3          	bnez	a2,80001274 <strncmp+0x10>
    80001294:	00000513          	li	a0,0
    80001298:	01c0006f          	j	800012b4 <strncmp+0x50>
    8000129c:	00000513          	li	a0,0
    800012a0:	0140006f          	j	800012b4 <strncmp+0x50>
    800012a4:	00060e63          	beqz	a2,800012c0 <strncmp+0x5c>
    800012a8:	00054503          	lbu	a0,0(a0)
    800012ac:	0005c783          	lbu	a5,0(a1)
    800012b0:	40f5053b          	subw	a0,a0,a5
    800012b4:	00813403          	ld	s0,8(sp)
    800012b8:	01010113          	addi	sp,sp,16
    800012bc:	00008067          	ret
    800012c0:	00000513          	li	a0,0
    800012c4:	ff1ff06f          	j	800012b4 <strncmp+0x50>

00000000800012c8 <strncpy>:
    800012c8:	ff010113          	addi	sp,sp,-16
    800012cc:	00813423          	sd	s0,8(sp)
    800012d0:	01010413          	addi	s0,sp,16
    800012d4:	00050713          	mv	a4,a0
    800012d8:	00060813          	mv	a6,a2
    800012dc:	fff6061b          	addiw	a2,a2,-1
    800012e0:	01005c63          	blez	a6,800012f8 <strncpy+0x30>
    800012e4:	00170713          	addi	a4,a4,1
    800012e8:	0005c783          	lbu	a5,0(a1)
    800012ec:	fef70fa3          	sb	a5,-1(a4)
    800012f0:	00158593          	addi	a1,a1,1
    800012f4:	fe0792e3          	bnez	a5,800012d8 <strncpy+0x10>
    800012f8:	00070693          	mv	a3,a4
    800012fc:	00c05e63          	blez	a2,80001318 <strncpy+0x50>
    80001300:	00168693          	addi	a3,a3,1
    80001304:	fe068fa3          	sb	zero,-1(a3)
    80001308:	40d707bb          	subw	a5,a4,a3
    8000130c:	fff7879b          	addiw	a5,a5,-1
    80001310:	010787bb          	addw	a5,a5,a6
    80001314:	fef046e3          	bgtz	a5,80001300 <strncpy+0x38>
    80001318:	00813403          	ld	s0,8(sp)
    8000131c:	01010113          	addi	sp,sp,16
    80001320:	00008067          	ret

0000000080001324 <safestrcpy>:
    80001324:	ff010113          	addi	sp,sp,-16
    80001328:	00813423          	sd	s0,8(sp)
    8000132c:	01010413          	addi	s0,sp,16
    80001330:	02c05a63          	blez	a2,80001364 <safestrcpy+0x40>
    80001334:	fff6069b          	addiw	a3,a2,-1
    80001338:	02069693          	slli	a3,a3,0x20
    8000133c:	0206d693          	srli	a3,a3,0x20
    80001340:	00d586b3          	add	a3,a1,a3
    80001344:	00050793          	mv	a5,a0
    80001348:	00d58c63          	beq	a1,a3,80001360 <safestrcpy+0x3c>
    8000134c:	00158593          	addi	a1,a1,1
    80001350:	00178793          	addi	a5,a5,1
    80001354:	fff5c703          	lbu	a4,-1(a1)
    80001358:	fee78fa3          	sb	a4,-1(a5)
    8000135c:	fe0716e3          	bnez	a4,80001348 <safestrcpy+0x24>
    80001360:	00078023          	sb	zero,0(a5)
    80001364:	00813403          	ld	s0,8(sp)
    80001368:	01010113          	addi	sp,sp,16
    8000136c:	00008067          	ret

0000000080001370 <strlen>:
    80001370:	ff010113          	addi	sp,sp,-16
    80001374:	00813423          	sd	s0,8(sp)
    80001378:	01010413          	addi	s0,sp,16
    8000137c:	00054783          	lbu	a5,0(a0)
    80001380:	02078863          	beqz	a5,800013b0 <strlen+0x40>
    80001384:	00150513          	addi	a0,a0,1
    80001388:	00050793          	mv	a5,a0
    8000138c:	00100693          	li	a3,1
    80001390:	40a686bb          	subw	a3,a3,a0
    80001394:	00f6853b          	addw	a0,a3,a5
    80001398:	00178793          	addi	a5,a5,1
    8000139c:	fff7c703          	lbu	a4,-1(a5)
    800013a0:	fe071ae3          	bnez	a4,80001394 <strlen+0x24>
    800013a4:	00813403          	ld	s0,8(sp)
    800013a8:	01010113          	addi	sp,sp,16
    800013ac:	00008067          	ret
    800013b0:	00000513          	li	a0,0
    800013b4:	ff1ff06f          	j	800013a4 <strlen+0x34>

00000000800013b8 <main>:
    800013b8:	ff010113          	addi	sp,sp,-16
    800013bc:	00113423          	sd	ra,8(sp)
    800013c0:	00813023          	sd	s0,0(sp)
    800013c4:	01010413          	addi	s0,sp,16
    800013c8:	00001097          	auipc	ra,0x1
    800013cc:	024080e7          	jalr	36(ra) # 800023ec <cpuid>
    800013d0:	0000a717          	auipc	a4,0xa
    800013d4:	c4870713          	addi	a4,a4,-952 # 8000b018 <started>
    800013d8:	04050863          	beqz	a0,80001428 <main+0x70>
    800013dc:	00072783          	lw	a5,0(a4)
    800013e0:	0007879b          	sext.w	a5,a5
    800013e4:	fe078ce3          	beqz	a5,800013dc <main+0x24>
    800013e8:	0ff0000f          	fence
    800013ec:	00001097          	auipc	ra,0x1
    800013f0:	000080e7          	jalr	ra # 800023ec <cpuid>
    800013f4:	00050593          	mv	a1,a0
    800013f8:	00009517          	auipc	a0,0x9
    800013fc:	cc050513          	addi	a0,a0,-832 # 8000a0b8 <digits+0x78>
    80001400:	fffff097          	auipc	ra,0xfffff
    80001404:	32c080e7          	jalr	812(ra) # 8000072c <printf>
    80001408:	00000097          	auipc	ra,0x0
    8000140c:	0dc080e7          	jalr	220(ra) # 800014e4 <kvminithart>
    80001410:	00002097          	auipc	ra,0x2
    80001414:	154080e7          	jalr	340(ra) # 80003564 <trapinithart>
    80001418:	00007097          	auipc	ra,0x7
    8000141c:	aa0080e7          	jalr	-1376(ra) # 80007eb8 <plicinithart>
    80001420:	00001097          	auipc	ra,0x1
    80001424:	744080e7          	jalr	1860(ra) # 80002b64 <scheduler>
    80001428:	fffff097          	auipc	ra,0xfffff
    8000142c:	168080e7          	jalr	360(ra) # 80000590 <consoleinit>
    80001430:	fffff097          	auipc	ra,0xfffff
    80001434:	568080e7          	jalr	1384(ra) # 80000998 <printfinit>
    80001438:	00009517          	auipc	a0,0x9
    8000143c:	c9050513          	addi	a0,a0,-880 # 8000a0c8 <digits+0x88>
    80001440:	fffff097          	auipc	ra,0xfffff
    80001444:	2ec080e7          	jalr	748(ra) # 8000072c <printf>
    80001448:	00009517          	auipc	a0,0x9
    8000144c:	c5850513          	addi	a0,a0,-936 # 8000a0a0 <digits+0x60>
    80001450:	fffff097          	auipc	ra,0xfffff
    80001454:	2dc080e7          	jalr	732(ra) # 8000072c <printf>
    80001458:	00009517          	auipc	a0,0x9
    8000145c:	c7050513          	addi	a0,a0,-912 # 8000a0c8 <digits+0x88>
    80001460:	fffff097          	auipc	ra,0xfffff
    80001464:	2cc080e7          	jalr	716(ra) # 8000072c <printf>
    80001468:	00000097          	auipc	ra,0x0
    8000146c:	9a8080e7          	jalr	-1624(ra) # 80000e10 <kinit>
    80001470:	00000097          	auipc	ra,0x0
    80001474:	47c080e7          	jalr	1148(ra) # 800018ec <kvminit>
    80001478:	00000097          	auipc	ra,0x0
    8000147c:	06c080e7          	jalr	108(ra) # 800014e4 <kvminithart>
    80001480:	00001097          	auipc	ra,0x1
    80001484:	e84080e7          	jalr	-380(ra) # 80002304 <procinit>
    80001488:	00002097          	auipc	ra,0x2
    8000148c:	0a4080e7          	jalr	164(ra) # 8000352c <trapinit>
    80001490:	00002097          	auipc	ra,0x2
    80001494:	0d4080e7          	jalr	212(ra) # 80003564 <trapinithart>
    80001498:	00007097          	auipc	ra,0x7
    8000149c:	9f8080e7          	jalr	-1544(ra) # 80007e90 <plicinit>
    800014a0:	00007097          	auipc	ra,0x7
    800014a4:	a18080e7          	jalr	-1512(ra) # 80007eb8 <plicinithart>
    800014a8:	00003097          	auipc	ra,0x3
    800014ac:	b24080e7          	jalr	-1244(ra) # 80003fcc <binit>
    800014b0:	00003097          	auipc	ra,0x3
    800014b4:	3f4080e7          	jalr	1012(ra) # 800048a4 <iinit>
    800014b8:	00005097          	auipc	ra,0x5
    800014bc:	9f0080e7          	jalr	-1552(ra) # 80005ea8 <fileinit>
    800014c0:	00007097          	auipc	ra,0x7
    800014c4:	b8c080e7          	jalr	-1140(ra) # 8000804c <virtio_disk_init>
    800014c8:	00001097          	auipc	ra,0x1
    800014cc:	398080e7          	jalr	920(ra) # 80002860 <userinit>
    800014d0:	0ff0000f          	fence
    800014d4:	00100793          	li	a5,1
    800014d8:	0000a717          	auipc	a4,0xa
    800014dc:	b4f72023          	sw	a5,-1216(a4) # 8000b018 <started>
    800014e0:	f41ff06f          	j	80001420 <main+0x68>

00000000800014e4 <kvminithart>:
    800014e4:	ff010113          	addi	sp,sp,-16
    800014e8:	00813423          	sd	s0,8(sp)
    800014ec:	01010413          	addi	s0,sp,16
    800014f0:	0000a797          	auipc	a5,0xa
    800014f4:	b307b783          	ld	a5,-1232(a5) # 8000b020 <kernel_pagetable>
    800014f8:	00c7d793          	srli	a5,a5,0xc
    800014fc:	fff00713          	li	a4,-1
    80001500:	03f71713          	slli	a4,a4,0x3f
    80001504:	00e7e7b3          	or	a5,a5,a4
    80001508:	18079073          	csrw	satp,a5
    8000150c:	12000073          	sfence.vma
    80001510:	00813403          	ld	s0,8(sp)
    80001514:	01010113          	addi	sp,sp,16
    80001518:	00008067          	ret

000000008000151c <walk>:
    8000151c:	fc010113          	addi	sp,sp,-64
    80001520:	02113c23          	sd	ra,56(sp)
    80001524:	02813823          	sd	s0,48(sp)
    80001528:	02913423          	sd	s1,40(sp)
    8000152c:	03213023          	sd	s2,32(sp)
    80001530:	01313c23          	sd	s3,24(sp)
    80001534:	01413823          	sd	s4,16(sp)
    80001538:	01513423          	sd	s5,8(sp)
    8000153c:	01613023          	sd	s6,0(sp)
    80001540:	04010413          	addi	s0,sp,64
    80001544:	00050493          	mv	s1,a0
    80001548:	00058993          	mv	s3,a1
    8000154c:	00060a93          	mv	s5,a2
    80001550:	fff00793          	li	a5,-1
    80001554:	01a7d793          	srli	a5,a5,0x1a
    80001558:	01e00a13          	li	s4,30
    8000155c:	00c00b13          	li	s6,12
    80001560:	04b7f863          	bgeu	a5,a1,800015b0 <walk+0x94>
    80001564:	00009517          	auipc	a0,0x9
    80001568:	b6c50513          	addi	a0,a0,-1172 # 8000a0d0 <digits+0x90>
    8000156c:	fffff097          	auipc	ra,0xfffff
    80001570:	164080e7          	jalr	356(ra) # 800006d0 <panic>
    80001574:	080a8e63          	beqz	s5,80001610 <walk+0xf4>
    80001578:	00000097          	auipc	ra,0x0
    8000157c:	8e8080e7          	jalr	-1816(ra) # 80000e60 <kalloc>
    80001580:	00050493          	mv	s1,a0
    80001584:	06050263          	beqz	a0,800015e8 <walk+0xcc>
    80001588:	00001637          	lui	a2,0x1
    8000158c:	00000593          	li	a1,0
    80001590:	00000097          	auipc	ra,0x0
    80001594:	b94080e7          	jalr	-1132(ra) # 80001124 <memset>
    80001598:	00c4d793          	srli	a5,s1,0xc
    8000159c:	00a79793          	slli	a5,a5,0xa
    800015a0:	0017e793          	ori	a5,a5,1
    800015a4:	00f93023          	sd	a5,0(s2)
    800015a8:	ff7a0a1b          	addiw	s4,s4,-9 # ffffffffffffeff7 <end+0xffffffff7ffd6ff7>
    800015ac:	036a0663          	beq	s4,s6,800015d8 <walk+0xbc>
    800015b0:	0149d933          	srl	s2,s3,s4
    800015b4:	1ff97913          	andi	s2,s2,511
    800015b8:	00391913          	slli	s2,s2,0x3
    800015bc:	01248933          	add	s2,s1,s2
    800015c0:	00093483          	ld	s1,0(s2)
    800015c4:	0014f793          	andi	a5,s1,1
    800015c8:	fa0786e3          	beqz	a5,80001574 <walk+0x58>
    800015cc:	00a4d493          	srli	s1,s1,0xa
    800015d0:	00c49493          	slli	s1,s1,0xc
    800015d4:	fd5ff06f          	j	800015a8 <walk+0x8c>
    800015d8:	00c9d513          	srli	a0,s3,0xc
    800015dc:	1ff57513          	andi	a0,a0,511
    800015e0:	00351513          	slli	a0,a0,0x3
    800015e4:	00a48533          	add	a0,s1,a0
    800015e8:	03813083          	ld	ra,56(sp)
    800015ec:	03013403          	ld	s0,48(sp)
    800015f0:	02813483          	ld	s1,40(sp)
    800015f4:	02013903          	ld	s2,32(sp)
    800015f8:	01813983          	ld	s3,24(sp)
    800015fc:	01013a03          	ld	s4,16(sp)
    80001600:	00813a83          	ld	s5,8(sp)
    80001604:	00013b03          	ld	s6,0(sp)
    80001608:	04010113          	addi	sp,sp,64
    8000160c:	00008067          	ret
    80001610:	00000513          	li	a0,0
    80001614:	fd5ff06f          	j	800015e8 <walk+0xcc>

0000000080001618 <walkaddr>:
    80001618:	fff00793          	li	a5,-1
    8000161c:	01a7d793          	srli	a5,a5,0x1a
    80001620:	00b7f663          	bgeu	a5,a1,8000162c <walkaddr+0x14>
    80001624:	00000513          	li	a0,0
    80001628:	00008067          	ret
    8000162c:	ff010113          	addi	sp,sp,-16
    80001630:	00113423          	sd	ra,8(sp)
    80001634:	00813023          	sd	s0,0(sp)
    80001638:	01010413          	addi	s0,sp,16
    8000163c:	00000613          	li	a2,0
    80001640:	00000097          	auipc	ra,0x0
    80001644:	edc080e7          	jalr	-292(ra) # 8000151c <walk>
    80001648:	02050a63          	beqz	a0,8000167c <walkaddr+0x64>
    8000164c:	00053783          	ld	a5,0(a0)
    80001650:	0117f693          	andi	a3,a5,17
    80001654:	01100713          	li	a4,17
    80001658:	00000513          	li	a0,0
    8000165c:	00e68a63          	beq	a3,a4,80001670 <walkaddr+0x58>
    80001660:	00813083          	ld	ra,8(sp)
    80001664:	00013403          	ld	s0,0(sp)
    80001668:	01010113          	addi	sp,sp,16
    8000166c:	00008067          	ret
    80001670:	00a7d793          	srli	a5,a5,0xa
    80001674:	00c79513          	slli	a0,a5,0xc
    80001678:	fe9ff06f          	j	80001660 <walkaddr+0x48>
    8000167c:	00000513          	li	a0,0
    80001680:	fe1ff06f          	j	80001660 <walkaddr+0x48>

0000000080001684 <mappages>:
    80001684:	fb010113          	addi	sp,sp,-80
    80001688:	04113423          	sd	ra,72(sp)
    8000168c:	04813023          	sd	s0,64(sp)
    80001690:	02913c23          	sd	s1,56(sp)
    80001694:	03213823          	sd	s2,48(sp)
    80001698:	03313423          	sd	s3,40(sp)
    8000169c:	03413023          	sd	s4,32(sp)
    800016a0:	01513c23          	sd	s5,24(sp)
    800016a4:	01613823          	sd	s6,16(sp)
    800016a8:	01713423          	sd	s7,8(sp)
    800016ac:	05010413          	addi	s0,sp,80
    800016b0:	06060a63          	beqz	a2,80001724 <mappages+0xa0>
    800016b4:	00050a93          	mv	s5,a0
    800016b8:	00070b13          	mv	s6,a4
    800016bc:	fffff737          	lui	a4,0xfffff
    800016c0:	00e5f7b3          	and	a5,a1,a4
    800016c4:	fff58993          	addi	s3,a1,-1
    800016c8:	00c989b3          	add	s3,s3,a2
    800016cc:	00e9f9b3          	and	s3,s3,a4
    800016d0:	00078913          	mv	s2,a5
    800016d4:	40f68a33          	sub	s4,a3,a5
    800016d8:	00001bb7          	lui	s7,0x1
    800016dc:	012a04b3          	add	s1,s4,s2
    800016e0:	00100613          	li	a2,1
    800016e4:	00090593          	mv	a1,s2
    800016e8:	000a8513          	mv	a0,s5
    800016ec:	00000097          	auipc	ra,0x0
    800016f0:	e30080e7          	jalr	-464(ra) # 8000151c <walk>
    800016f4:	04050863          	beqz	a0,80001744 <mappages+0xc0>
    800016f8:	00053783          	ld	a5,0(a0)
    800016fc:	0017f793          	andi	a5,a5,1
    80001700:	02079a63          	bnez	a5,80001734 <mappages+0xb0>
    80001704:	00c4d493          	srli	s1,s1,0xc
    80001708:	00a49493          	slli	s1,s1,0xa
    8000170c:	0164e4b3          	or	s1,s1,s6
    80001710:	0014e493          	ori	s1,s1,1
    80001714:	00953023          	sd	s1,0(a0)
    80001718:	05390e63          	beq	s2,s3,80001774 <mappages+0xf0>
    8000171c:	01790933          	add	s2,s2,s7
    80001720:	fbdff06f          	j	800016dc <mappages+0x58>
    80001724:	00009517          	auipc	a0,0x9
    80001728:	9b450513          	addi	a0,a0,-1612 # 8000a0d8 <digits+0x98>
    8000172c:	fffff097          	auipc	ra,0xfffff
    80001730:	fa4080e7          	jalr	-92(ra) # 800006d0 <panic>
    80001734:	00009517          	auipc	a0,0x9
    80001738:	9b450513          	addi	a0,a0,-1612 # 8000a0e8 <digits+0xa8>
    8000173c:	fffff097          	auipc	ra,0xfffff
    80001740:	f94080e7          	jalr	-108(ra) # 800006d0 <panic>
    80001744:	fff00513          	li	a0,-1
    80001748:	04813083          	ld	ra,72(sp)
    8000174c:	04013403          	ld	s0,64(sp)
    80001750:	03813483          	ld	s1,56(sp)
    80001754:	03013903          	ld	s2,48(sp)
    80001758:	02813983          	ld	s3,40(sp)
    8000175c:	02013a03          	ld	s4,32(sp)
    80001760:	01813a83          	ld	s5,24(sp)
    80001764:	01013b03          	ld	s6,16(sp)
    80001768:	00813b83          	ld	s7,8(sp)
    8000176c:	05010113          	addi	sp,sp,80
    80001770:	00008067          	ret
    80001774:	00000513          	li	a0,0
    80001778:	fd1ff06f          	j	80001748 <mappages+0xc4>

000000008000177c <kvmmap>:
    8000177c:	ff010113          	addi	sp,sp,-16
    80001780:	00113423          	sd	ra,8(sp)
    80001784:	00813023          	sd	s0,0(sp)
    80001788:	01010413          	addi	s0,sp,16
    8000178c:	00068793          	mv	a5,a3
    80001790:	00060693          	mv	a3,a2
    80001794:	00078613          	mv	a2,a5
    80001798:	00000097          	auipc	ra,0x0
    8000179c:	eec080e7          	jalr	-276(ra) # 80001684 <mappages>
    800017a0:	00051a63          	bnez	a0,800017b4 <kvmmap+0x38>
    800017a4:	00813083          	ld	ra,8(sp)
    800017a8:	00013403          	ld	s0,0(sp)
    800017ac:	01010113          	addi	sp,sp,16
    800017b0:	00008067          	ret
    800017b4:	00009517          	auipc	a0,0x9
    800017b8:	94450513          	addi	a0,a0,-1724 # 8000a0f8 <digits+0xb8>
    800017bc:	fffff097          	auipc	ra,0xfffff
    800017c0:	f14080e7          	jalr	-236(ra) # 800006d0 <panic>

00000000800017c4 <kvmmake>:
    800017c4:	fe010113          	addi	sp,sp,-32
    800017c8:	00113c23          	sd	ra,24(sp)
    800017cc:	00813823          	sd	s0,16(sp)
    800017d0:	00913423          	sd	s1,8(sp)
    800017d4:	01213023          	sd	s2,0(sp)
    800017d8:	02010413          	addi	s0,sp,32
    800017dc:	fffff097          	auipc	ra,0xfffff
    800017e0:	684080e7          	jalr	1668(ra) # 80000e60 <kalloc>
    800017e4:	00050493          	mv	s1,a0
    800017e8:	00001637          	lui	a2,0x1
    800017ec:	00000593          	li	a1,0
    800017f0:	00000097          	auipc	ra,0x0
    800017f4:	934080e7          	jalr	-1740(ra) # 80001124 <memset>
    800017f8:	00600713          	li	a4,6
    800017fc:	000016b7          	lui	a3,0x1
    80001800:	10000637          	lui	a2,0x10000
    80001804:	100005b7          	lui	a1,0x10000
    80001808:	00048513          	mv	a0,s1
    8000180c:	00000097          	auipc	ra,0x0
    80001810:	f70080e7          	jalr	-144(ra) # 8000177c <kvmmap>
    80001814:	00600713          	li	a4,6
    80001818:	000016b7          	lui	a3,0x1
    8000181c:	10001637          	lui	a2,0x10001
    80001820:	100015b7          	lui	a1,0x10001
    80001824:	00048513          	mv	a0,s1
    80001828:	00000097          	auipc	ra,0x0
    8000182c:	f54080e7          	jalr	-172(ra) # 8000177c <kvmmap>
    80001830:	00600713          	li	a4,6
    80001834:	004006b7          	lui	a3,0x400
    80001838:	0c000637          	lui	a2,0xc000
    8000183c:	0c0005b7          	lui	a1,0xc000
    80001840:	00048513          	mv	a0,s1
    80001844:	00000097          	auipc	ra,0x0
    80001848:	f38080e7          	jalr	-200(ra) # 8000177c <kvmmap>
    8000184c:	00008917          	auipc	s2,0x8
    80001850:	7b490913          	addi	s2,s2,1972 # 8000a000 <etext>
    80001854:	00a00713          	li	a4,10
    80001858:	80008697          	auipc	a3,0x80008
    8000185c:	7a868693          	addi	a3,a3,1960 # a000 <_entry-0x7fff6000>
    80001860:	00100613          	li	a2,1
    80001864:	01f61613          	slli	a2,a2,0x1f
    80001868:	00060593          	mv	a1,a2
    8000186c:	00048513          	mv	a0,s1
    80001870:	00000097          	auipc	ra,0x0
    80001874:	f0c080e7          	jalr	-244(ra) # 8000177c <kvmmap>
    80001878:	00600713          	li	a4,6
    8000187c:	01100693          	li	a3,17
    80001880:	01b69693          	slli	a3,a3,0x1b
    80001884:	412686b3          	sub	a3,a3,s2
    80001888:	00090613          	mv	a2,s2
    8000188c:	00090593          	mv	a1,s2
    80001890:	00048513          	mv	a0,s1
    80001894:	00000097          	auipc	ra,0x0
    80001898:	ee8080e7          	jalr	-280(ra) # 8000177c <kvmmap>
    8000189c:	00a00713          	li	a4,10
    800018a0:	000016b7          	lui	a3,0x1
    800018a4:	00007617          	auipc	a2,0x7
    800018a8:	75c60613          	addi	a2,a2,1884 # 80009000 <_trampoline>
    800018ac:	040005b7          	lui	a1,0x4000
    800018b0:	fff58593          	addi	a1,a1,-1 # 3ffffff <_entry-0x7c000001>
    800018b4:	00c59593          	slli	a1,a1,0xc
    800018b8:	00048513          	mv	a0,s1
    800018bc:	00000097          	auipc	ra,0x0
    800018c0:	ec0080e7          	jalr	-320(ra) # 8000177c <kvmmap>
    800018c4:	00048513          	mv	a0,s1
    800018c8:	00001097          	auipc	ra,0x1
    800018cc:	968080e7          	jalr	-1688(ra) # 80002230 <proc_mapstacks>
    800018d0:	00048513          	mv	a0,s1
    800018d4:	01813083          	ld	ra,24(sp)
    800018d8:	01013403          	ld	s0,16(sp)
    800018dc:	00813483          	ld	s1,8(sp)
    800018e0:	00013903          	ld	s2,0(sp)
    800018e4:	02010113          	addi	sp,sp,32
    800018e8:	00008067          	ret

00000000800018ec <kvminit>:
    800018ec:	ff010113          	addi	sp,sp,-16
    800018f0:	00113423          	sd	ra,8(sp)
    800018f4:	00813023          	sd	s0,0(sp)
    800018f8:	01010413          	addi	s0,sp,16
    800018fc:	00000097          	auipc	ra,0x0
    80001900:	ec8080e7          	jalr	-312(ra) # 800017c4 <kvmmake>
    80001904:	00009797          	auipc	a5,0x9
    80001908:	70a7be23          	sd	a0,1820(a5) # 8000b020 <kernel_pagetable>
    8000190c:	00813083          	ld	ra,8(sp)
    80001910:	00013403          	ld	s0,0(sp)
    80001914:	01010113          	addi	sp,sp,16
    80001918:	00008067          	ret

000000008000191c <uvmunmap>:
    8000191c:	fb010113          	addi	sp,sp,-80
    80001920:	04113423          	sd	ra,72(sp)
    80001924:	04813023          	sd	s0,64(sp)
    80001928:	02913c23          	sd	s1,56(sp)
    8000192c:	03213823          	sd	s2,48(sp)
    80001930:	03313423          	sd	s3,40(sp)
    80001934:	03413023          	sd	s4,32(sp)
    80001938:	01513c23          	sd	s5,24(sp)
    8000193c:	01613823          	sd	s6,16(sp)
    80001940:	01713423          	sd	s7,8(sp)
    80001944:	05010413          	addi	s0,sp,80
    80001948:	03459793          	slli	a5,a1,0x34
    8000194c:	04079863          	bnez	a5,8000199c <uvmunmap+0x80>
    80001950:	00050a13          	mv	s4,a0
    80001954:	00058913          	mv	s2,a1
    80001958:	00068a93          	mv	s5,a3
    8000195c:	00c61613          	slli	a2,a2,0xc
    80001960:	00b609b3          	add	s3,a2,a1
    80001964:	00100b93          	li	s7,1
    80001968:	00001b37          	lui	s6,0x1
    8000196c:	0735ee63          	bltu	a1,s3,800019e8 <uvmunmap+0xcc>
    80001970:	04813083          	ld	ra,72(sp)
    80001974:	04013403          	ld	s0,64(sp)
    80001978:	03813483          	ld	s1,56(sp)
    8000197c:	03013903          	ld	s2,48(sp)
    80001980:	02813983          	ld	s3,40(sp)
    80001984:	02013a03          	ld	s4,32(sp)
    80001988:	01813a83          	ld	s5,24(sp)
    8000198c:	01013b03          	ld	s6,16(sp)
    80001990:	00813b83          	ld	s7,8(sp)
    80001994:	05010113          	addi	sp,sp,80
    80001998:	00008067          	ret
    8000199c:	00008517          	auipc	a0,0x8
    800019a0:	76450513          	addi	a0,a0,1892 # 8000a100 <digits+0xc0>
    800019a4:	fffff097          	auipc	ra,0xfffff
    800019a8:	d2c080e7          	jalr	-724(ra) # 800006d0 <panic>
    800019ac:	00008517          	auipc	a0,0x8
    800019b0:	76c50513          	addi	a0,a0,1900 # 8000a118 <digits+0xd8>
    800019b4:	fffff097          	auipc	ra,0xfffff
    800019b8:	d1c080e7          	jalr	-740(ra) # 800006d0 <panic>
    800019bc:	00008517          	auipc	a0,0x8
    800019c0:	76c50513          	addi	a0,a0,1900 # 8000a128 <digits+0xe8>
    800019c4:	fffff097          	auipc	ra,0xfffff
    800019c8:	d0c080e7          	jalr	-756(ra) # 800006d0 <panic>
    800019cc:	00008517          	auipc	a0,0x8
    800019d0:	77450513          	addi	a0,a0,1908 # 8000a140 <digits+0x100>
    800019d4:	fffff097          	auipc	ra,0xfffff
    800019d8:	cfc080e7          	jalr	-772(ra) # 800006d0 <panic>
    800019dc:	0004b023          	sd	zero,0(s1)
    800019e0:	01690933          	add	s2,s2,s6
    800019e4:	f93976e3          	bgeu	s2,s3,80001970 <uvmunmap+0x54>
    800019e8:	00000613          	li	a2,0
    800019ec:	00090593          	mv	a1,s2
    800019f0:	000a0513          	mv	a0,s4
    800019f4:	00000097          	auipc	ra,0x0
    800019f8:	b28080e7          	jalr	-1240(ra) # 8000151c <walk>
    800019fc:	00050493          	mv	s1,a0
    80001a00:	fa0506e3          	beqz	a0,800019ac <uvmunmap+0x90>
    80001a04:	00053503          	ld	a0,0(a0)
    80001a08:	00157793          	andi	a5,a0,1
    80001a0c:	fa0788e3          	beqz	a5,800019bc <uvmunmap+0xa0>
    80001a10:	3ff57793          	andi	a5,a0,1023
    80001a14:	fb778ce3          	beq	a5,s7,800019cc <uvmunmap+0xb0>
    80001a18:	fc0a82e3          	beqz	s5,800019dc <uvmunmap+0xc0>
    80001a1c:	00a55513          	srli	a0,a0,0xa
    80001a20:	00c51513          	slli	a0,a0,0xc
    80001a24:	fffff097          	auipc	ra,0xfffff
    80001a28:	2d0080e7          	jalr	720(ra) # 80000cf4 <kfree>
    80001a2c:	fb1ff06f          	j	800019dc <uvmunmap+0xc0>

0000000080001a30 <uvmcreate>:
    80001a30:	fe010113          	addi	sp,sp,-32
    80001a34:	00113c23          	sd	ra,24(sp)
    80001a38:	00813823          	sd	s0,16(sp)
    80001a3c:	00913423          	sd	s1,8(sp)
    80001a40:	02010413          	addi	s0,sp,32
    80001a44:	fffff097          	auipc	ra,0xfffff
    80001a48:	41c080e7          	jalr	1052(ra) # 80000e60 <kalloc>
    80001a4c:	00050493          	mv	s1,a0
    80001a50:	00050a63          	beqz	a0,80001a64 <uvmcreate+0x34>
    80001a54:	00001637          	lui	a2,0x1
    80001a58:	00000593          	li	a1,0
    80001a5c:	fffff097          	auipc	ra,0xfffff
    80001a60:	6c8080e7          	jalr	1736(ra) # 80001124 <memset>
    80001a64:	00048513          	mv	a0,s1
    80001a68:	01813083          	ld	ra,24(sp)
    80001a6c:	01013403          	ld	s0,16(sp)
    80001a70:	00813483          	ld	s1,8(sp)
    80001a74:	02010113          	addi	sp,sp,32
    80001a78:	00008067          	ret

0000000080001a7c <uvminit>:
    80001a7c:	fd010113          	addi	sp,sp,-48
    80001a80:	02113423          	sd	ra,40(sp)
    80001a84:	02813023          	sd	s0,32(sp)
    80001a88:	00913c23          	sd	s1,24(sp)
    80001a8c:	01213823          	sd	s2,16(sp)
    80001a90:	01313423          	sd	s3,8(sp)
    80001a94:	01413023          	sd	s4,0(sp)
    80001a98:	03010413          	addi	s0,sp,48
    80001a9c:	000017b7          	lui	a5,0x1
    80001aa0:	06f67e63          	bgeu	a2,a5,80001b1c <uvminit+0xa0>
    80001aa4:	00050a13          	mv	s4,a0
    80001aa8:	00058993          	mv	s3,a1
    80001aac:	00060493          	mv	s1,a2
    80001ab0:	fffff097          	auipc	ra,0xfffff
    80001ab4:	3b0080e7          	jalr	944(ra) # 80000e60 <kalloc>
    80001ab8:	00050913          	mv	s2,a0
    80001abc:	00001637          	lui	a2,0x1
    80001ac0:	00000593          	li	a1,0
    80001ac4:	fffff097          	auipc	ra,0xfffff
    80001ac8:	660080e7          	jalr	1632(ra) # 80001124 <memset>
    80001acc:	01e00713          	li	a4,30
    80001ad0:	00090693          	mv	a3,s2
    80001ad4:	00001637          	lui	a2,0x1
    80001ad8:	00000593          	li	a1,0
    80001adc:	000a0513          	mv	a0,s4
    80001ae0:	00000097          	auipc	ra,0x0
    80001ae4:	ba4080e7          	jalr	-1116(ra) # 80001684 <mappages>
    80001ae8:	00048613          	mv	a2,s1
    80001aec:	00098593          	mv	a1,s3
    80001af0:	00090513          	mv	a0,s2
    80001af4:	fffff097          	auipc	ra,0xfffff
    80001af8:	6c4080e7          	jalr	1732(ra) # 800011b8 <memmove>
    80001afc:	02813083          	ld	ra,40(sp)
    80001b00:	02013403          	ld	s0,32(sp)
    80001b04:	01813483          	ld	s1,24(sp)
    80001b08:	01013903          	ld	s2,16(sp)
    80001b0c:	00813983          	ld	s3,8(sp)
    80001b10:	00013a03          	ld	s4,0(sp)
    80001b14:	03010113          	addi	sp,sp,48
    80001b18:	00008067          	ret
    80001b1c:	00008517          	auipc	a0,0x8
    80001b20:	63c50513          	addi	a0,a0,1596 # 8000a158 <digits+0x118>
    80001b24:	fffff097          	auipc	ra,0xfffff
    80001b28:	bac080e7          	jalr	-1108(ra) # 800006d0 <panic>

0000000080001b2c <uvmdealloc>:
    80001b2c:	fe010113          	addi	sp,sp,-32
    80001b30:	00113c23          	sd	ra,24(sp)
    80001b34:	00813823          	sd	s0,16(sp)
    80001b38:	00913423          	sd	s1,8(sp)
    80001b3c:	02010413          	addi	s0,sp,32
    80001b40:	00058493          	mv	s1,a1
    80001b44:	02b67463          	bgeu	a2,a1,80001b6c <uvmdealloc+0x40>
    80001b48:	00060493          	mv	s1,a2
    80001b4c:	000017b7          	lui	a5,0x1
    80001b50:	fff78793          	addi	a5,a5,-1 # fff <_entry-0x7ffff001>
    80001b54:	00f60733          	add	a4,a2,a5
    80001b58:	fffff6b7          	lui	a3,0xfffff
    80001b5c:	00d77733          	and	a4,a4,a3
    80001b60:	00f587b3          	add	a5,a1,a5
    80001b64:	00d7f7b3          	and	a5,a5,a3
    80001b68:	00f76e63          	bltu	a4,a5,80001b84 <uvmdealloc+0x58>
    80001b6c:	00048513          	mv	a0,s1
    80001b70:	01813083          	ld	ra,24(sp)
    80001b74:	01013403          	ld	s0,16(sp)
    80001b78:	00813483          	ld	s1,8(sp)
    80001b7c:	02010113          	addi	sp,sp,32
    80001b80:	00008067          	ret
    80001b84:	40e787b3          	sub	a5,a5,a4
    80001b88:	00c7d793          	srli	a5,a5,0xc
    80001b8c:	00100693          	li	a3,1
    80001b90:	0007861b          	sext.w	a2,a5
    80001b94:	00070593          	mv	a1,a4
    80001b98:	00000097          	auipc	ra,0x0
    80001b9c:	d84080e7          	jalr	-636(ra) # 8000191c <uvmunmap>
    80001ba0:	fcdff06f          	j	80001b6c <uvmdealloc+0x40>

0000000080001ba4 <uvmalloc>:
    80001ba4:	10b66263          	bltu	a2,a1,80001ca8 <uvmalloc+0x104>
    80001ba8:	fc010113          	addi	sp,sp,-64
    80001bac:	02113c23          	sd	ra,56(sp)
    80001bb0:	02813823          	sd	s0,48(sp)
    80001bb4:	02913423          	sd	s1,40(sp)
    80001bb8:	03213023          	sd	s2,32(sp)
    80001bbc:	01313c23          	sd	s3,24(sp)
    80001bc0:	01413823          	sd	s4,16(sp)
    80001bc4:	01513423          	sd	s5,8(sp)
    80001bc8:	04010413          	addi	s0,sp,64
    80001bcc:	00050a93          	mv	s5,a0
    80001bd0:	00060a13          	mv	s4,a2
    80001bd4:	000017b7          	lui	a5,0x1
    80001bd8:	fff78793          	addi	a5,a5,-1 # fff <_entry-0x7ffff001>
    80001bdc:	00f585b3          	add	a1,a1,a5
    80001be0:	fffff7b7          	lui	a5,0xfffff
    80001be4:	00f5f9b3          	and	s3,a1,a5
    80001be8:	0cc9f463          	bgeu	s3,a2,80001cb0 <uvmalloc+0x10c>
    80001bec:	00098913          	mv	s2,s3
    80001bf0:	fffff097          	auipc	ra,0xfffff
    80001bf4:	270080e7          	jalr	624(ra) # 80000e60 <kalloc>
    80001bf8:	00050493          	mv	s1,a0
    80001bfc:	04050463          	beqz	a0,80001c44 <uvmalloc+0xa0>
    80001c00:	00001637          	lui	a2,0x1
    80001c04:	00000593          	li	a1,0
    80001c08:	fffff097          	auipc	ra,0xfffff
    80001c0c:	51c080e7          	jalr	1308(ra) # 80001124 <memset>
    80001c10:	01e00713          	li	a4,30
    80001c14:	00048693          	mv	a3,s1
    80001c18:	00001637          	lui	a2,0x1
    80001c1c:	00090593          	mv	a1,s2
    80001c20:	000a8513          	mv	a0,s5
    80001c24:	00000097          	auipc	ra,0x0
    80001c28:	a60080e7          	jalr	-1440(ra) # 80001684 <mappages>
    80001c2c:	04051a63          	bnez	a0,80001c80 <uvmalloc+0xdc>
    80001c30:	000017b7          	lui	a5,0x1
    80001c34:	00f90933          	add	s2,s2,a5
    80001c38:	fb496ce3          	bltu	s2,s4,80001bf0 <uvmalloc+0x4c>
    80001c3c:	000a0513          	mv	a0,s4
    80001c40:	01c0006f          	j	80001c5c <uvmalloc+0xb8>
    80001c44:	00098613          	mv	a2,s3
    80001c48:	00090593          	mv	a1,s2
    80001c4c:	000a8513          	mv	a0,s5
    80001c50:	00000097          	auipc	ra,0x0
    80001c54:	edc080e7          	jalr	-292(ra) # 80001b2c <uvmdealloc>
    80001c58:	00000513          	li	a0,0
    80001c5c:	03813083          	ld	ra,56(sp)
    80001c60:	03013403          	ld	s0,48(sp)
    80001c64:	02813483          	ld	s1,40(sp)
    80001c68:	02013903          	ld	s2,32(sp)
    80001c6c:	01813983          	ld	s3,24(sp)
    80001c70:	01013a03          	ld	s4,16(sp)
    80001c74:	00813a83          	ld	s5,8(sp)
    80001c78:	04010113          	addi	sp,sp,64
    80001c7c:	00008067          	ret
    80001c80:	00048513          	mv	a0,s1
    80001c84:	fffff097          	auipc	ra,0xfffff
    80001c88:	070080e7          	jalr	112(ra) # 80000cf4 <kfree>
    80001c8c:	00098613          	mv	a2,s3
    80001c90:	00090593          	mv	a1,s2
    80001c94:	000a8513          	mv	a0,s5
    80001c98:	00000097          	auipc	ra,0x0
    80001c9c:	e94080e7          	jalr	-364(ra) # 80001b2c <uvmdealloc>
    80001ca0:	00000513          	li	a0,0
    80001ca4:	fb9ff06f          	j	80001c5c <uvmalloc+0xb8>
    80001ca8:	00058513          	mv	a0,a1
    80001cac:	00008067          	ret
    80001cb0:	00060513          	mv	a0,a2
    80001cb4:	fa9ff06f          	j	80001c5c <uvmalloc+0xb8>

0000000080001cb8 <freewalk>:
    80001cb8:	fd010113          	addi	sp,sp,-48
    80001cbc:	02113423          	sd	ra,40(sp)
    80001cc0:	02813023          	sd	s0,32(sp)
    80001cc4:	00913c23          	sd	s1,24(sp)
    80001cc8:	01213823          	sd	s2,16(sp)
    80001ccc:	01313423          	sd	s3,8(sp)
    80001cd0:	01413023          	sd	s4,0(sp)
    80001cd4:	03010413          	addi	s0,sp,48
    80001cd8:	00050a13          	mv	s4,a0
    80001cdc:	00050493          	mv	s1,a0
    80001ce0:	00001937          	lui	s2,0x1
    80001ce4:	01250933          	add	s2,a0,s2
    80001ce8:	00100993          	li	s3,1
    80001cec:	0200006f          	j	80001d0c <freewalk+0x54>
    80001cf0:	00a7d793          	srli	a5,a5,0xa
    80001cf4:	00c79513          	slli	a0,a5,0xc
    80001cf8:	00000097          	auipc	ra,0x0
    80001cfc:	fc0080e7          	jalr	-64(ra) # 80001cb8 <freewalk>
    80001d00:	0004b023          	sd	zero,0(s1)
    80001d04:	00848493          	addi	s1,s1,8
    80001d08:	03248463          	beq	s1,s2,80001d30 <freewalk+0x78>
    80001d0c:	0004b783          	ld	a5,0(s1)
    80001d10:	00f7f713          	andi	a4,a5,15
    80001d14:	fd370ee3          	beq	a4,s3,80001cf0 <freewalk+0x38>
    80001d18:	0017f793          	andi	a5,a5,1
    80001d1c:	fe0784e3          	beqz	a5,80001d04 <freewalk+0x4c>
    80001d20:	00008517          	auipc	a0,0x8
    80001d24:	45850513          	addi	a0,a0,1112 # 8000a178 <digits+0x138>
    80001d28:	fffff097          	auipc	ra,0xfffff
    80001d2c:	9a8080e7          	jalr	-1624(ra) # 800006d0 <panic>
    80001d30:	000a0513          	mv	a0,s4
    80001d34:	fffff097          	auipc	ra,0xfffff
    80001d38:	fc0080e7          	jalr	-64(ra) # 80000cf4 <kfree>
    80001d3c:	02813083          	ld	ra,40(sp)
    80001d40:	02013403          	ld	s0,32(sp)
    80001d44:	01813483          	ld	s1,24(sp)
    80001d48:	01013903          	ld	s2,16(sp)
    80001d4c:	00813983          	ld	s3,8(sp)
    80001d50:	00013a03          	ld	s4,0(sp)
    80001d54:	03010113          	addi	sp,sp,48
    80001d58:	00008067          	ret

0000000080001d5c <uvmfree>:
    80001d5c:	fe010113          	addi	sp,sp,-32
    80001d60:	00113c23          	sd	ra,24(sp)
    80001d64:	00813823          	sd	s0,16(sp)
    80001d68:	00913423          	sd	s1,8(sp)
    80001d6c:	02010413          	addi	s0,sp,32
    80001d70:	00050493          	mv	s1,a0
    80001d74:	02059263          	bnez	a1,80001d98 <uvmfree+0x3c>
    80001d78:	00048513          	mv	a0,s1
    80001d7c:	00000097          	auipc	ra,0x0
    80001d80:	f3c080e7          	jalr	-196(ra) # 80001cb8 <freewalk>
    80001d84:	01813083          	ld	ra,24(sp)
    80001d88:	01013403          	ld	s0,16(sp)
    80001d8c:	00813483          	ld	s1,8(sp)
    80001d90:	02010113          	addi	sp,sp,32
    80001d94:	00008067          	ret
    80001d98:	000017b7          	lui	a5,0x1
    80001d9c:	fff78793          	addi	a5,a5,-1 # fff <_entry-0x7ffff001>
    80001da0:	00f585b3          	add	a1,a1,a5
    80001da4:	00100693          	li	a3,1
    80001da8:	00c5d613          	srli	a2,a1,0xc
    80001dac:	00000593          	li	a1,0
    80001db0:	00000097          	auipc	ra,0x0
    80001db4:	b6c080e7          	jalr	-1172(ra) # 8000191c <uvmunmap>
    80001db8:	fc1ff06f          	j	80001d78 <uvmfree+0x1c>

0000000080001dbc <uvmcopy>:
    80001dbc:	12060a63          	beqz	a2,80001ef0 <uvmcopy+0x134>
    80001dc0:	fb010113          	addi	sp,sp,-80
    80001dc4:	04113423          	sd	ra,72(sp)
    80001dc8:	04813023          	sd	s0,64(sp)
    80001dcc:	02913c23          	sd	s1,56(sp)
    80001dd0:	03213823          	sd	s2,48(sp)
    80001dd4:	03313423          	sd	s3,40(sp)
    80001dd8:	03413023          	sd	s4,32(sp)
    80001ddc:	01513c23          	sd	s5,24(sp)
    80001de0:	01613823          	sd	s6,16(sp)
    80001de4:	01713423          	sd	s7,8(sp)
    80001de8:	05010413          	addi	s0,sp,80
    80001dec:	00050b13          	mv	s6,a0
    80001df0:	00058a93          	mv	s5,a1
    80001df4:	00060a13          	mv	s4,a2
    80001df8:	00000993          	li	s3,0
    80001dfc:	00000613          	li	a2,0
    80001e00:	00098593          	mv	a1,s3
    80001e04:	000b0513          	mv	a0,s6
    80001e08:	fffff097          	auipc	ra,0xfffff
    80001e0c:	714080e7          	jalr	1812(ra) # 8000151c <walk>
    80001e10:	06050663          	beqz	a0,80001e7c <uvmcopy+0xc0>
    80001e14:	00053703          	ld	a4,0(a0)
    80001e18:	00177793          	andi	a5,a4,1
    80001e1c:	06078863          	beqz	a5,80001e8c <uvmcopy+0xd0>
    80001e20:	00a75593          	srli	a1,a4,0xa
    80001e24:	00c59b93          	slli	s7,a1,0xc
    80001e28:	3ff77493          	andi	s1,a4,1023
    80001e2c:	fffff097          	auipc	ra,0xfffff
    80001e30:	034080e7          	jalr	52(ra) # 80000e60 <kalloc>
    80001e34:	00050913          	mv	s2,a0
    80001e38:	06050863          	beqz	a0,80001ea8 <uvmcopy+0xec>
    80001e3c:	00001637          	lui	a2,0x1
    80001e40:	000b8593          	mv	a1,s7
    80001e44:	fffff097          	auipc	ra,0xfffff
    80001e48:	374080e7          	jalr	884(ra) # 800011b8 <memmove>
    80001e4c:	00048713          	mv	a4,s1
    80001e50:	00090693          	mv	a3,s2
    80001e54:	00001637          	lui	a2,0x1
    80001e58:	00098593          	mv	a1,s3
    80001e5c:	000a8513          	mv	a0,s5
    80001e60:	00000097          	auipc	ra,0x0
    80001e64:	824080e7          	jalr	-2012(ra) # 80001684 <mappages>
    80001e68:	02051a63          	bnez	a0,80001e9c <uvmcopy+0xe0>
    80001e6c:	000017b7          	lui	a5,0x1
    80001e70:	00f989b3          	add	s3,s3,a5
    80001e74:	f949e4e3          	bltu	s3,s4,80001dfc <uvmcopy+0x40>
    80001e78:	04c0006f          	j	80001ec4 <uvmcopy+0x108>
    80001e7c:	00008517          	auipc	a0,0x8
    80001e80:	30c50513          	addi	a0,a0,780 # 8000a188 <digits+0x148>
    80001e84:	fffff097          	auipc	ra,0xfffff
    80001e88:	84c080e7          	jalr	-1972(ra) # 800006d0 <panic>
    80001e8c:	00008517          	auipc	a0,0x8
    80001e90:	31c50513          	addi	a0,a0,796 # 8000a1a8 <digits+0x168>
    80001e94:	fffff097          	auipc	ra,0xfffff
    80001e98:	83c080e7          	jalr	-1988(ra) # 800006d0 <panic>
    80001e9c:	00090513          	mv	a0,s2
    80001ea0:	fffff097          	auipc	ra,0xfffff
    80001ea4:	e54080e7          	jalr	-428(ra) # 80000cf4 <kfree>
    80001ea8:	00100693          	li	a3,1
    80001eac:	00c9d613          	srli	a2,s3,0xc
    80001eb0:	00000593          	li	a1,0
    80001eb4:	000a8513          	mv	a0,s5
    80001eb8:	00000097          	auipc	ra,0x0
    80001ebc:	a64080e7          	jalr	-1436(ra) # 8000191c <uvmunmap>
    80001ec0:	fff00513          	li	a0,-1
    80001ec4:	04813083          	ld	ra,72(sp)
    80001ec8:	04013403          	ld	s0,64(sp)
    80001ecc:	03813483          	ld	s1,56(sp)
    80001ed0:	03013903          	ld	s2,48(sp)
    80001ed4:	02813983          	ld	s3,40(sp)
    80001ed8:	02013a03          	ld	s4,32(sp)
    80001edc:	01813a83          	ld	s5,24(sp)
    80001ee0:	01013b03          	ld	s6,16(sp)
    80001ee4:	00813b83          	ld	s7,8(sp)
    80001ee8:	05010113          	addi	sp,sp,80
    80001eec:	00008067          	ret
    80001ef0:	00000513          	li	a0,0
    80001ef4:	00008067          	ret

0000000080001ef8 <uvmclear>:
    80001ef8:	ff010113          	addi	sp,sp,-16
    80001efc:	00113423          	sd	ra,8(sp)
    80001f00:	00813023          	sd	s0,0(sp)
    80001f04:	01010413          	addi	s0,sp,16
    80001f08:	00000613          	li	a2,0
    80001f0c:	fffff097          	auipc	ra,0xfffff
    80001f10:	610080e7          	jalr	1552(ra) # 8000151c <walk>
    80001f14:	02050063          	beqz	a0,80001f34 <uvmclear+0x3c>
    80001f18:	00053783          	ld	a5,0(a0)
    80001f1c:	fef7f793          	andi	a5,a5,-17
    80001f20:	00f53023          	sd	a5,0(a0)
    80001f24:	00813083          	ld	ra,8(sp)
    80001f28:	00013403          	ld	s0,0(sp)
    80001f2c:	01010113          	addi	sp,sp,16
    80001f30:	00008067          	ret
    80001f34:	00008517          	auipc	a0,0x8
    80001f38:	29450513          	addi	a0,a0,660 # 8000a1c8 <digits+0x188>
    80001f3c:	ffffe097          	auipc	ra,0xffffe
    80001f40:	794080e7          	jalr	1940(ra) # 800006d0 <panic>

0000000080001f44 <copyout>:
    80001f44:	0a068663          	beqz	a3,80001ff0 <copyout+0xac>
    80001f48:	fb010113          	addi	sp,sp,-80
    80001f4c:	04113423          	sd	ra,72(sp)
    80001f50:	04813023          	sd	s0,64(sp)
    80001f54:	02913c23          	sd	s1,56(sp)
    80001f58:	03213823          	sd	s2,48(sp)
    80001f5c:	03313423          	sd	s3,40(sp)
    80001f60:	03413023          	sd	s4,32(sp)
    80001f64:	01513c23          	sd	s5,24(sp)
    80001f68:	01613823          	sd	s6,16(sp)
    80001f6c:	01713423          	sd	s7,8(sp)
    80001f70:	01813023          	sd	s8,0(sp)
    80001f74:	05010413          	addi	s0,sp,80
    80001f78:	00050b13          	mv	s6,a0
    80001f7c:	00058c13          	mv	s8,a1
    80001f80:	00060a13          	mv	s4,a2
    80001f84:	00068993          	mv	s3,a3
    80001f88:	fffffbb7          	lui	s7,0xfffff
    80001f8c:	00001ab7          	lui	s5,0x1
    80001f90:	02c0006f          	j	80001fbc <copyout+0x78>
    80001f94:	01850533          	add	a0,a0,s8
    80001f98:	0004861b          	sext.w	a2,s1
    80001f9c:	000a0593          	mv	a1,s4
    80001fa0:	41250533          	sub	a0,a0,s2
    80001fa4:	fffff097          	auipc	ra,0xfffff
    80001fa8:	214080e7          	jalr	532(ra) # 800011b8 <memmove>
    80001fac:	409989b3          	sub	s3,s3,s1
    80001fb0:	009a0a33          	add	s4,s4,s1
    80001fb4:	01590c33          	add	s8,s2,s5
    80001fb8:	02098863          	beqz	s3,80001fe8 <copyout+0xa4>
    80001fbc:	017c7933          	and	s2,s8,s7
    80001fc0:	00090593          	mv	a1,s2
    80001fc4:	000b0513          	mv	a0,s6
    80001fc8:	fffff097          	auipc	ra,0xfffff
    80001fcc:	650080e7          	jalr	1616(ra) # 80001618 <walkaddr>
    80001fd0:	02050463          	beqz	a0,80001ff8 <copyout+0xb4>
    80001fd4:	418904b3          	sub	s1,s2,s8
    80001fd8:	015484b3          	add	s1,s1,s5
    80001fdc:	fa99fce3          	bgeu	s3,s1,80001f94 <copyout+0x50>
    80001fe0:	00098493          	mv	s1,s3
    80001fe4:	fb1ff06f          	j	80001f94 <copyout+0x50>
    80001fe8:	00000513          	li	a0,0
    80001fec:	0100006f          	j	80001ffc <copyout+0xb8>
    80001ff0:	00000513          	li	a0,0
    80001ff4:	00008067          	ret
    80001ff8:	fff00513          	li	a0,-1
    80001ffc:	04813083          	ld	ra,72(sp)
    80002000:	04013403          	ld	s0,64(sp)
    80002004:	03813483          	ld	s1,56(sp)
    80002008:	03013903          	ld	s2,48(sp)
    8000200c:	02813983          	ld	s3,40(sp)
    80002010:	02013a03          	ld	s4,32(sp)
    80002014:	01813a83          	ld	s5,24(sp)
    80002018:	01013b03          	ld	s6,16(sp)
    8000201c:	00813b83          	ld	s7,8(sp)
    80002020:	00013c03          	ld	s8,0(sp)
    80002024:	05010113          	addi	sp,sp,80
    80002028:	00008067          	ret

000000008000202c <copyin>:
    8000202c:	0a068663          	beqz	a3,800020d8 <copyin+0xac>
    80002030:	fb010113          	addi	sp,sp,-80
    80002034:	04113423          	sd	ra,72(sp)
    80002038:	04813023          	sd	s0,64(sp)
    8000203c:	02913c23          	sd	s1,56(sp)
    80002040:	03213823          	sd	s2,48(sp)
    80002044:	03313423          	sd	s3,40(sp)
    80002048:	03413023          	sd	s4,32(sp)
    8000204c:	01513c23          	sd	s5,24(sp)
    80002050:	01613823          	sd	s6,16(sp)
    80002054:	01713423          	sd	s7,8(sp)
    80002058:	01813023          	sd	s8,0(sp)
    8000205c:	05010413          	addi	s0,sp,80
    80002060:	00050b13          	mv	s6,a0
    80002064:	00058a13          	mv	s4,a1
    80002068:	00060c13          	mv	s8,a2
    8000206c:	00068993          	mv	s3,a3
    80002070:	fffffbb7          	lui	s7,0xfffff
    80002074:	00001ab7          	lui	s5,0x1
    80002078:	02c0006f          	j	800020a4 <copyin+0x78>
    8000207c:	018505b3          	add	a1,a0,s8
    80002080:	0004861b          	sext.w	a2,s1
    80002084:	412585b3          	sub	a1,a1,s2
    80002088:	000a0513          	mv	a0,s4
    8000208c:	fffff097          	auipc	ra,0xfffff
    80002090:	12c080e7          	jalr	300(ra) # 800011b8 <memmove>
    80002094:	409989b3          	sub	s3,s3,s1
    80002098:	009a0a33          	add	s4,s4,s1
    8000209c:	01590c33          	add	s8,s2,s5
    800020a0:	02098863          	beqz	s3,800020d0 <copyin+0xa4>
    800020a4:	017c7933          	and	s2,s8,s7
    800020a8:	00090593          	mv	a1,s2
    800020ac:	000b0513          	mv	a0,s6
    800020b0:	fffff097          	auipc	ra,0xfffff
    800020b4:	568080e7          	jalr	1384(ra) # 80001618 <walkaddr>
    800020b8:	02050463          	beqz	a0,800020e0 <copyin+0xb4>
    800020bc:	418904b3          	sub	s1,s2,s8
    800020c0:	015484b3          	add	s1,s1,s5
    800020c4:	fa99fce3          	bgeu	s3,s1,8000207c <copyin+0x50>
    800020c8:	00098493          	mv	s1,s3
    800020cc:	fb1ff06f          	j	8000207c <copyin+0x50>
    800020d0:	00000513          	li	a0,0
    800020d4:	0100006f          	j	800020e4 <copyin+0xb8>
    800020d8:	00000513          	li	a0,0
    800020dc:	00008067          	ret
    800020e0:	fff00513          	li	a0,-1
    800020e4:	04813083          	ld	ra,72(sp)
    800020e8:	04013403          	ld	s0,64(sp)
    800020ec:	03813483          	ld	s1,56(sp)
    800020f0:	03013903          	ld	s2,48(sp)
    800020f4:	02813983          	ld	s3,40(sp)
    800020f8:	02013a03          	ld	s4,32(sp)
    800020fc:	01813a83          	ld	s5,24(sp)
    80002100:	01013b03          	ld	s6,16(sp)
    80002104:	00813b83          	ld	s7,8(sp)
    80002108:	00013c03          	ld	s8,0(sp)
    8000210c:	05010113          	addi	sp,sp,80
    80002110:	00008067          	ret

0000000080002114 <copyinstr>:
    80002114:	10068663          	beqz	a3,80002220 <copyinstr+0x10c>
    80002118:	fb010113          	addi	sp,sp,-80
    8000211c:	04113423          	sd	ra,72(sp)
    80002120:	04813023          	sd	s0,64(sp)
    80002124:	02913c23          	sd	s1,56(sp)
    80002128:	03213823          	sd	s2,48(sp)
    8000212c:	03313423          	sd	s3,40(sp)
    80002130:	03413023          	sd	s4,32(sp)
    80002134:	01513c23          	sd	s5,24(sp)
    80002138:	01613823          	sd	s6,16(sp)
    8000213c:	01713423          	sd	s7,8(sp)
    80002140:	05010413          	addi	s0,sp,80
    80002144:	00050a13          	mv	s4,a0
    80002148:	00058b13          	mv	s6,a1
    8000214c:	00060b93          	mv	s7,a2
    80002150:	00068493          	mv	s1,a3
    80002154:	fffffab7          	lui	s5,0xfffff
    80002158:	000019b7          	lui	s3,0x1
    8000215c:	0480006f          	j	800021a4 <copyinstr+0x90>
    80002160:	00078023          	sb	zero,0(a5) # 1000 <_entry-0x7ffff000>
    80002164:	00100793          	li	a5,1
    80002168:	fff7879b          	addiw	a5,a5,-1
    8000216c:	0007851b          	sext.w	a0,a5
    80002170:	04813083          	ld	ra,72(sp)
    80002174:	04013403          	ld	s0,64(sp)
    80002178:	03813483          	ld	s1,56(sp)
    8000217c:	03013903          	ld	s2,48(sp)
    80002180:	02813983          	ld	s3,40(sp)
    80002184:	02013a03          	ld	s4,32(sp)
    80002188:	01813a83          	ld	s5,24(sp)
    8000218c:	01013b03          	ld	s6,16(sp)
    80002190:	00813b83          	ld	s7,8(sp)
    80002194:	05010113          	addi	sp,sp,80
    80002198:	00008067          	ret
    8000219c:	01390bb3          	add	s7,s2,s3
    800021a0:	06048863          	beqz	s1,80002210 <copyinstr+0xfc>
    800021a4:	015bf933          	and	s2,s7,s5
    800021a8:	00090593          	mv	a1,s2
    800021ac:	000a0513          	mv	a0,s4
    800021b0:	fffff097          	auipc	ra,0xfffff
    800021b4:	468080e7          	jalr	1128(ra) # 80001618 <walkaddr>
    800021b8:	06050063          	beqz	a0,80002218 <copyinstr+0x104>
    800021bc:	417906b3          	sub	a3,s2,s7
    800021c0:	013686b3          	add	a3,a3,s3
    800021c4:	00d4f463          	bgeu	s1,a3,800021cc <copyinstr+0xb8>
    800021c8:	00048693          	mv	a3,s1
    800021cc:	01750533          	add	a0,a0,s7
    800021d0:	41250533          	sub	a0,a0,s2
    800021d4:	fc0684e3          	beqz	a3,8000219c <copyinstr+0x88>
    800021d8:	000b0793          	mv	a5,s6
    800021dc:	41650633          	sub	a2,a0,s6
    800021e0:	fff48593          	addi	a1,s1,-1
    800021e4:	00bb05b3          	add	a1,s6,a1
    800021e8:	00db06b3          	add	a3,s6,a3
    800021ec:	00f60733          	add	a4,a2,a5
    800021f0:	00074703          	lbu	a4,0(a4) # fffffffffffff000 <end+0xffffffff7ffd7000>
    800021f4:	f60706e3          	beqz	a4,80002160 <copyinstr+0x4c>
    800021f8:	00e78023          	sb	a4,0(a5)
    800021fc:	40f584b3          	sub	s1,a1,a5
    80002200:	00178793          	addi	a5,a5,1
    80002204:	fed794e3          	bne	a5,a3,800021ec <copyinstr+0xd8>
    80002208:	00078b13          	mv	s6,a5
    8000220c:	f91ff06f          	j	8000219c <copyinstr+0x88>
    80002210:	00000793          	li	a5,0
    80002214:	f55ff06f          	j	80002168 <copyinstr+0x54>
    80002218:	fff00513          	li	a0,-1
    8000221c:	f55ff06f          	j	80002170 <copyinstr+0x5c>
    80002220:	00000793          	li	a5,0
    80002224:	fff7879b          	addiw	a5,a5,-1
    80002228:	0007851b          	sext.w	a0,a5
    8000222c:	00008067          	ret

0000000080002230 <proc_mapstacks>:
    80002230:	fc010113          	addi	sp,sp,-64
    80002234:	02113c23          	sd	ra,56(sp)
    80002238:	02813823          	sd	s0,48(sp)
    8000223c:	02913423          	sd	s1,40(sp)
    80002240:	03213023          	sd	s2,32(sp)
    80002244:	01313c23          	sd	s3,24(sp)
    80002248:	01413823          	sd	s4,16(sp)
    8000224c:	01513423          	sd	s5,8(sp)
    80002250:	01613023          	sd	s6,0(sp)
    80002254:	04010413          	addi	s0,sp,64
    80002258:	00050993          	mv	s3,a0
    8000225c:	00011497          	auipc	s1,0x11
    80002260:	47448493          	addi	s1,s1,1140 # 800136d0 <proc>
    80002264:	00048b13          	mv	s6,s1
    80002268:	00008a97          	auipc	s5,0x8
    8000226c:	d98a8a93          	addi	s5,s5,-616 # 8000a000 <etext>
    80002270:	04000937          	lui	s2,0x4000
    80002274:	fff90913          	addi	s2,s2,-1 # 3ffffff <_entry-0x7c000001>
    80002278:	00c91913          	slli	s2,s2,0xc
    8000227c:	00017a17          	auipc	s4,0x17
    80002280:	e54a0a13          	addi	s4,s4,-428 # 800190d0 <tickslock>
    80002284:	fffff097          	auipc	ra,0xfffff
    80002288:	bdc080e7          	jalr	-1060(ra) # 80000e60 <kalloc>
    8000228c:	00050613          	mv	a2,a0
    80002290:	06050263          	beqz	a0,800022f4 <proc_mapstacks+0xc4>
    80002294:	416485b3          	sub	a1,s1,s6
    80002298:	4035d593          	srai	a1,a1,0x3
    8000229c:	000ab783          	ld	a5,0(s5)
    800022a0:	02f585b3          	mul	a1,a1,a5
    800022a4:	0015859b          	addiw	a1,a1,1
    800022a8:	00d5959b          	slliw	a1,a1,0xd
    800022ac:	00600713          	li	a4,6
    800022b0:	000016b7          	lui	a3,0x1
    800022b4:	40b905b3          	sub	a1,s2,a1
    800022b8:	00098513          	mv	a0,s3
    800022bc:	fffff097          	auipc	ra,0xfffff
    800022c0:	4c0080e7          	jalr	1216(ra) # 8000177c <kvmmap>
    800022c4:	16848493          	addi	s1,s1,360
    800022c8:	fb449ee3          	bne	s1,s4,80002284 <proc_mapstacks+0x54>
    800022cc:	03813083          	ld	ra,56(sp)
    800022d0:	03013403          	ld	s0,48(sp)
    800022d4:	02813483          	ld	s1,40(sp)
    800022d8:	02013903          	ld	s2,32(sp)
    800022dc:	01813983          	ld	s3,24(sp)
    800022e0:	01013a03          	ld	s4,16(sp)
    800022e4:	00813a83          	ld	s5,8(sp)
    800022e8:	00013b03          	ld	s6,0(sp)
    800022ec:	04010113          	addi	sp,sp,64
    800022f0:	00008067          	ret
    800022f4:	00008517          	auipc	a0,0x8
    800022f8:	ee450513          	addi	a0,a0,-284 # 8000a1d8 <digits+0x198>
    800022fc:	ffffe097          	auipc	ra,0xffffe
    80002300:	3d4080e7          	jalr	980(ra) # 800006d0 <panic>

0000000080002304 <procinit>:
    80002304:	fc010113          	addi	sp,sp,-64
    80002308:	02113c23          	sd	ra,56(sp)
    8000230c:	02813823          	sd	s0,48(sp)
    80002310:	02913423          	sd	s1,40(sp)
    80002314:	03213023          	sd	s2,32(sp)
    80002318:	01313c23          	sd	s3,24(sp)
    8000231c:	01413823          	sd	s4,16(sp)
    80002320:	01513423          	sd	s5,8(sp)
    80002324:	01613023          	sd	s6,0(sp)
    80002328:	04010413          	addi	s0,sp,64
    8000232c:	00008597          	auipc	a1,0x8
    80002330:	eb458593          	addi	a1,a1,-332 # 8000a1e0 <digits+0x1a0>
    80002334:	00011517          	auipc	a0,0x11
    80002338:	f6c50513          	addi	a0,a0,-148 # 800132a0 <pid_lock>
    8000233c:	fffff097          	auipc	ra,0xfffff
    80002340:	bac080e7          	jalr	-1108(ra) # 80000ee8 <initlock>
    80002344:	00008597          	auipc	a1,0x8
    80002348:	ea458593          	addi	a1,a1,-348 # 8000a1e8 <digits+0x1a8>
    8000234c:	00011517          	auipc	a0,0x11
    80002350:	f6c50513          	addi	a0,a0,-148 # 800132b8 <wait_lock>
    80002354:	fffff097          	auipc	ra,0xfffff
    80002358:	b94080e7          	jalr	-1132(ra) # 80000ee8 <initlock>
    8000235c:	00011497          	auipc	s1,0x11
    80002360:	37448493          	addi	s1,s1,884 # 800136d0 <proc>
    80002364:	00008b17          	auipc	s6,0x8
    80002368:	e94b0b13          	addi	s6,s6,-364 # 8000a1f8 <digits+0x1b8>
    8000236c:	00048a93          	mv	s5,s1
    80002370:	00008a17          	auipc	s4,0x8
    80002374:	c90a0a13          	addi	s4,s4,-880 # 8000a000 <etext>
    80002378:	04000937          	lui	s2,0x4000
    8000237c:	fff90913          	addi	s2,s2,-1 # 3ffffff <_entry-0x7c000001>
    80002380:	00c91913          	slli	s2,s2,0xc
    80002384:	00017997          	auipc	s3,0x17
    80002388:	d4c98993          	addi	s3,s3,-692 # 800190d0 <tickslock>
    8000238c:	000b0593          	mv	a1,s6
    80002390:	00048513          	mv	a0,s1
    80002394:	fffff097          	auipc	ra,0xfffff
    80002398:	b54080e7          	jalr	-1196(ra) # 80000ee8 <initlock>
    8000239c:	415487b3          	sub	a5,s1,s5
    800023a0:	4037d793          	srai	a5,a5,0x3
    800023a4:	000a3703          	ld	a4,0(s4)
    800023a8:	02e787b3          	mul	a5,a5,a4
    800023ac:	0017879b          	addiw	a5,a5,1
    800023b0:	00d7979b          	slliw	a5,a5,0xd
    800023b4:	40f907b3          	sub	a5,s2,a5
    800023b8:	04f4b023          	sd	a5,64(s1)
    800023bc:	16848493          	addi	s1,s1,360
    800023c0:	fd3496e3          	bne	s1,s3,8000238c <procinit+0x88>
    800023c4:	03813083          	ld	ra,56(sp)
    800023c8:	03013403          	ld	s0,48(sp)
    800023cc:	02813483          	ld	s1,40(sp)
    800023d0:	02013903          	ld	s2,32(sp)
    800023d4:	01813983          	ld	s3,24(sp)
    800023d8:	01013a03          	ld	s4,16(sp)
    800023dc:	00813a83          	ld	s5,8(sp)
    800023e0:	00013b03          	ld	s6,0(sp)
    800023e4:	04010113          	addi	sp,sp,64
    800023e8:	00008067          	ret

00000000800023ec <cpuid>:
    800023ec:	ff010113          	addi	sp,sp,-16
    800023f0:	00813423          	sd	s0,8(sp)
    800023f4:	01010413          	addi	s0,sp,16
    800023f8:	00020513          	mv	a0,tp
    800023fc:	0005051b          	sext.w	a0,a0
    80002400:	00813403          	ld	s0,8(sp)
    80002404:	01010113          	addi	sp,sp,16
    80002408:	00008067          	ret

000000008000240c <mycpu>:
    8000240c:	ff010113          	addi	sp,sp,-16
    80002410:	00813423          	sd	s0,8(sp)
    80002414:	01010413          	addi	s0,sp,16
    80002418:	00020793          	mv	a5,tp
    8000241c:	0007879b          	sext.w	a5,a5
    80002420:	00779793          	slli	a5,a5,0x7
    80002424:	00011517          	auipc	a0,0x11
    80002428:	eac50513          	addi	a0,a0,-340 # 800132d0 <cpus>
    8000242c:	00f50533          	add	a0,a0,a5
    80002430:	00813403          	ld	s0,8(sp)
    80002434:	01010113          	addi	sp,sp,16
    80002438:	00008067          	ret

000000008000243c <myproc>:
    8000243c:	fe010113          	addi	sp,sp,-32
    80002440:	00113c23          	sd	ra,24(sp)
    80002444:	00813823          	sd	s0,16(sp)
    80002448:	00913423          	sd	s1,8(sp)
    8000244c:	02010413          	addi	s0,sp,32
    80002450:	fffff097          	auipc	ra,0xfffff
    80002454:	b08080e7          	jalr	-1272(ra) # 80000f58 <push_off>
    80002458:	00020793          	mv	a5,tp
    8000245c:	0007879b          	sext.w	a5,a5
    80002460:	00779793          	slli	a5,a5,0x7
    80002464:	00011717          	auipc	a4,0x11
    80002468:	e3c70713          	addi	a4,a4,-452 # 800132a0 <pid_lock>
    8000246c:	00f707b3          	add	a5,a4,a5
    80002470:	0307b483          	ld	s1,48(a5)
    80002474:	fffff097          	auipc	ra,0xfffff
    80002478:	bd0080e7          	jalr	-1072(ra) # 80001044 <pop_off>
    8000247c:	00048513          	mv	a0,s1
    80002480:	01813083          	ld	ra,24(sp)
    80002484:	01013403          	ld	s0,16(sp)
    80002488:	00813483          	ld	s1,8(sp)
    8000248c:	02010113          	addi	sp,sp,32
    80002490:	00008067          	ret

0000000080002494 <forkret>:
    80002494:	ff010113          	addi	sp,sp,-16
    80002498:	00113423          	sd	ra,8(sp)
    8000249c:	00813023          	sd	s0,0(sp)
    800024a0:	01010413          	addi	s0,sp,16
    800024a4:	00000097          	auipc	ra,0x0
    800024a8:	f98080e7          	jalr	-104(ra) # 8000243c <myproc>
    800024ac:	fffff097          	auipc	ra,0xfffff
    800024b0:	c18080e7          	jalr	-1000(ra) # 800010c4 <release>
    800024b4:	00008797          	auipc	a5,0x8
    800024b8:	35c7a783          	lw	a5,860(a5) # 8000a810 <first.1>
    800024bc:	00079e63          	bnez	a5,800024d8 <forkret+0x44>
    800024c0:	00001097          	auipc	ra,0x1
    800024c4:	0c8080e7          	jalr	200(ra) # 80003588 <usertrapret>
    800024c8:	00813083          	ld	ra,8(sp)
    800024cc:	00013403          	ld	s0,0(sp)
    800024d0:	01010113          	addi	sp,sp,16
    800024d4:	00008067          	ret
    800024d8:	00008797          	auipc	a5,0x8
    800024dc:	3207ac23          	sw	zero,824(a5) # 8000a810 <first.1>
    800024e0:	00100513          	li	a0,1
    800024e4:	00002097          	auipc	ra,0x2
    800024e8:	318080e7          	jalr	792(ra) # 800047fc <fsinit>
    800024ec:	fd5ff06f          	j	800024c0 <forkret+0x2c>

00000000800024f0 <allocpid>:
    800024f0:	fe010113          	addi	sp,sp,-32
    800024f4:	00113c23          	sd	ra,24(sp)
    800024f8:	00813823          	sd	s0,16(sp)
    800024fc:	00913423          	sd	s1,8(sp)
    80002500:	01213023          	sd	s2,0(sp)
    80002504:	02010413          	addi	s0,sp,32
    80002508:	00011917          	auipc	s2,0x11
    8000250c:	d9890913          	addi	s2,s2,-616 # 800132a0 <pid_lock>
    80002510:	00090513          	mv	a0,s2
    80002514:	fffff097          	auipc	ra,0xfffff
    80002518:	ab8080e7          	jalr	-1352(ra) # 80000fcc <acquire>
    8000251c:	00008797          	auipc	a5,0x8
    80002520:	2f878793          	addi	a5,a5,760 # 8000a814 <nextpid>
    80002524:	0007a483          	lw	s1,0(a5)
    80002528:	0014871b          	addiw	a4,s1,1
    8000252c:	00e7a023          	sw	a4,0(a5)
    80002530:	00090513          	mv	a0,s2
    80002534:	fffff097          	auipc	ra,0xfffff
    80002538:	b90080e7          	jalr	-1136(ra) # 800010c4 <release>
    8000253c:	00048513          	mv	a0,s1
    80002540:	01813083          	ld	ra,24(sp)
    80002544:	01013403          	ld	s0,16(sp)
    80002548:	00813483          	ld	s1,8(sp)
    8000254c:	00013903          	ld	s2,0(sp)
    80002550:	02010113          	addi	sp,sp,32
    80002554:	00008067          	ret

0000000080002558 <proc_pagetable>:
    80002558:	fe010113          	addi	sp,sp,-32
    8000255c:	00113c23          	sd	ra,24(sp)
    80002560:	00813823          	sd	s0,16(sp)
    80002564:	00913423          	sd	s1,8(sp)
    80002568:	01213023          	sd	s2,0(sp)
    8000256c:	02010413          	addi	s0,sp,32
    80002570:	00050913          	mv	s2,a0
    80002574:	fffff097          	auipc	ra,0xfffff
    80002578:	4bc080e7          	jalr	1212(ra) # 80001a30 <uvmcreate>
    8000257c:	00050493          	mv	s1,a0
    80002580:	04050a63          	beqz	a0,800025d4 <proc_pagetable+0x7c>
    80002584:	00a00713          	li	a4,10
    80002588:	00007697          	auipc	a3,0x7
    8000258c:	a7868693          	addi	a3,a3,-1416 # 80009000 <_trampoline>
    80002590:	00001637          	lui	a2,0x1
    80002594:	040005b7          	lui	a1,0x4000
    80002598:	fff58593          	addi	a1,a1,-1 # 3ffffff <_entry-0x7c000001>
    8000259c:	00c59593          	slli	a1,a1,0xc
    800025a0:	fffff097          	auipc	ra,0xfffff
    800025a4:	0e4080e7          	jalr	228(ra) # 80001684 <mappages>
    800025a8:	04054463          	bltz	a0,800025f0 <proc_pagetable+0x98>
    800025ac:	00600713          	li	a4,6
    800025b0:	05893683          	ld	a3,88(s2)
    800025b4:	00001637          	lui	a2,0x1
    800025b8:	020005b7          	lui	a1,0x2000
    800025bc:	fff58593          	addi	a1,a1,-1 # 1ffffff <_entry-0x7e000001>
    800025c0:	00d59593          	slli	a1,a1,0xd
    800025c4:	00048513          	mv	a0,s1
    800025c8:	fffff097          	auipc	ra,0xfffff
    800025cc:	0bc080e7          	jalr	188(ra) # 80001684 <mappages>
    800025d0:	02054c63          	bltz	a0,80002608 <proc_pagetable+0xb0>
    800025d4:	00048513          	mv	a0,s1
    800025d8:	01813083          	ld	ra,24(sp)
    800025dc:	01013403          	ld	s0,16(sp)
    800025e0:	00813483          	ld	s1,8(sp)
    800025e4:	00013903          	ld	s2,0(sp)
    800025e8:	02010113          	addi	sp,sp,32
    800025ec:	00008067          	ret
    800025f0:	00000593          	li	a1,0
    800025f4:	00048513          	mv	a0,s1
    800025f8:	fffff097          	auipc	ra,0xfffff
    800025fc:	764080e7          	jalr	1892(ra) # 80001d5c <uvmfree>
    80002600:	00000493          	li	s1,0
    80002604:	fd1ff06f          	j	800025d4 <proc_pagetable+0x7c>
    80002608:	00000693          	li	a3,0
    8000260c:	00100613          	li	a2,1
    80002610:	040005b7          	lui	a1,0x4000
    80002614:	fff58593          	addi	a1,a1,-1 # 3ffffff <_entry-0x7c000001>
    80002618:	00c59593          	slli	a1,a1,0xc
    8000261c:	00048513          	mv	a0,s1
    80002620:	fffff097          	auipc	ra,0xfffff
    80002624:	2fc080e7          	jalr	764(ra) # 8000191c <uvmunmap>
    80002628:	00000593          	li	a1,0
    8000262c:	00048513          	mv	a0,s1
    80002630:	fffff097          	auipc	ra,0xfffff
    80002634:	72c080e7          	jalr	1836(ra) # 80001d5c <uvmfree>
    80002638:	00000493          	li	s1,0
    8000263c:	f99ff06f          	j	800025d4 <proc_pagetable+0x7c>

0000000080002640 <proc_freepagetable>:
    80002640:	fe010113          	addi	sp,sp,-32
    80002644:	00113c23          	sd	ra,24(sp)
    80002648:	00813823          	sd	s0,16(sp)
    8000264c:	00913423          	sd	s1,8(sp)
    80002650:	01213023          	sd	s2,0(sp)
    80002654:	02010413          	addi	s0,sp,32
    80002658:	00050493          	mv	s1,a0
    8000265c:	00058913          	mv	s2,a1
    80002660:	00000693          	li	a3,0
    80002664:	00100613          	li	a2,1
    80002668:	040005b7          	lui	a1,0x4000
    8000266c:	fff58593          	addi	a1,a1,-1 # 3ffffff <_entry-0x7c000001>
    80002670:	00c59593          	slli	a1,a1,0xc
    80002674:	fffff097          	auipc	ra,0xfffff
    80002678:	2a8080e7          	jalr	680(ra) # 8000191c <uvmunmap>
    8000267c:	00000693          	li	a3,0
    80002680:	00100613          	li	a2,1
    80002684:	020005b7          	lui	a1,0x2000
    80002688:	fff58593          	addi	a1,a1,-1 # 1ffffff <_entry-0x7e000001>
    8000268c:	00d59593          	slli	a1,a1,0xd
    80002690:	00048513          	mv	a0,s1
    80002694:	fffff097          	auipc	ra,0xfffff
    80002698:	288080e7          	jalr	648(ra) # 8000191c <uvmunmap>
    8000269c:	00090593          	mv	a1,s2
    800026a0:	00048513          	mv	a0,s1
    800026a4:	fffff097          	auipc	ra,0xfffff
    800026a8:	6b8080e7          	jalr	1720(ra) # 80001d5c <uvmfree>
    800026ac:	01813083          	ld	ra,24(sp)
    800026b0:	01013403          	ld	s0,16(sp)
    800026b4:	00813483          	ld	s1,8(sp)
    800026b8:	00013903          	ld	s2,0(sp)
    800026bc:	02010113          	addi	sp,sp,32
    800026c0:	00008067          	ret

00000000800026c4 <freeproc>:
    800026c4:	fe010113          	addi	sp,sp,-32
    800026c8:	00113c23          	sd	ra,24(sp)
    800026cc:	00813823          	sd	s0,16(sp)
    800026d0:	00913423          	sd	s1,8(sp)
    800026d4:	02010413          	addi	s0,sp,32
    800026d8:	00050493          	mv	s1,a0
    800026dc:	05853503          	ld	a0,88(a0)
    800026e0:	00050663          	beqz	a0,800026ec <freeproc+0x28>
    800026e4:	ffffe097          	auipc	ra,0xffffe
    800026e8:	610080e7          	jalr	1552(ra) # 80000cf4 <kfree>
    800026ec:	0404bc23          	sd	zero,88(s1)
    800026f0:	0504b503          	ld	a0,80(s1)
    800026f4:	00050863          	beqz	a0,80002704 <freeproc+0x40>
    800026f8:	0484b583          	ld	a1,72(s1)
    800026fc:	00000097          	auipc	ra,0x0
    80002700:	f44080e7          	jalr	-188(ra) # 80002640 <proc_freepagetable>
    80002704:	0404b823          	sd	zero,80(s1)
    80002708:	0404b423          	sd	zero,72(s1)
    8000270c:	0204a823          	sw	zero,48(s1)
    80002710:	0204bc23          	sd	zero,56(s1)
    80002714:	14048c23          	sb	zero,344(s1)
    80002718:	0204b023          	sd	zero,32(s1)
    8000271c:	0204a423          	sw	zero,40(s1)
    80002720:	0204a623          	sw	zero,44(s1)
    80002724:	0004ac23          	sw	zero,24(s1)
    80002728:	01813083          	ld	ra,24(sp)
    8000272c:	01013403          	ld	s0,16(sp)
    80002730:	00813483          	ld	s1,8(sp)
    80002734:	02010113          	addi	sp,sp,32
    80002738:	00008067          	ret

000000008000273c <allocproc>:
    8000273c:	fe010113          	addi	sp,sp,-32
    80002740:	00113c23          	sd	ra,24(sp)
    80002744:	00813823          	sd	s0,16(sp)
    80002748:	00913423          	sd	s1,8(sp)
    8000274c:	01213023          	sd	s2,0(sp)
    80002750:	02010413          	addi	s0,sp,32
    80002754:	00011497          	auipc	s1,0x11
    80002758:	f7c48493          	addi	s1,s1,-132 # 800136d0 <proc>
    8000275c:	00017917          	auipc	s2,0x17
    80002760:	97490913          	addi	s2,s2,-1676 # 800190d0 <tickslock>
    80002764:	00048513          	mv	a0,s1
    80002768:	fffff097          	auipc	ra,0xfffff
    8000276c:	864080e7          	jalr	-1948(ra) # 80000fcc <acquire>
    80002770:	0184a783          	lw	a5,24(s1)
    80002774:	02078063          	beqz	a5,80002794 <allocproc+0x58>
    80002778:	00048513          	mv	a0,s1
    8000277c:	fffff097          	auipc	ra,0xfffff
    80002780:	948080e7          	jalr	-1720(ra) # 800010c4 <release>
    80002784:	16848493          	addi	s1,s1,360
    80002788:	fd249ee3          	bne	s1,s2,80002764 <allocproc+0x28>
    8000278c:	00000493          	li	s1,0
    80002790:	0740006f          	j	80002804 <allocproc+0xc8>
    80002794:	00000097          	auipc	ra,0x0
    80002798:	d5c080e7          	jalr	-676(ra) # 800024f0 <allocpid>
    8000279c:	02a4a823          	sw	a0,48(s1)
    800027a0:	00100793          	li	a5,1
    800027a4:	00f4ac23          	sw	a5,24(s1)
    800027a8:	ffffe097          	auipc	ra,0xffffe
    800027ac:	6b8080e7          	jalr	1720(ra) # 80000e60 <kalloc>
    800027b0:	00050913          	mv	s2,a0
    800027b4:	04a4bc23          	sd	a0,88(s1)
    800027b8:	06050463          	beqz	a0,80002820 <allocproc+0xe4>
    800027bc:	00048513          	mv	a0,s1
    800027c0:	00000097          	auipc	ra,0x0
    800027c4:	d98080e7          	jalr	-616(ra) # 80002558 <proc_pagetable>
    800027c8:	00050913          	mv	s2,a0
    800027cc:	04a4b823          	sd	a0,80(s1)
    800027d0:	06050863          	beqz	a0,80002840 <allocproc+0x104>
    800027d4:	07000613          	li	a2,112
    800027d8:	00000593          	li	a1,0
    800027dc:	06048513          	addi	a0,s1,96
    800027e0:	fffff097          	auipc	ra,0xfffff
    800027e4:	944080e7          	jalr	-1724(ra) # 80001124 <memset>
    800027e8:	00000797          	auipc	a5,0x0
    800027ec:	cac78793          	addi	a5,a5,-852 # 80002494 <forkret>
    800027f0:	06f4b023          	sd	a5,96(s1)
    800027f4:	0404b783          	ld	a5,64(s1)
    800027f8:	00001737          	lui	a4,0x1
    800027fc:	00e787b3          	add	a5,a5,a4
    80002800:	06f4b423          	sd	a5,104(s1)
    80002804:	00048513          	mv	a0,s1
    80002808:	01813083          	ld	ra,24(sp)
    8000280c:	01013403          	ld	s0,16(sp)
    80002810:	00813483          	ld	s1,8(sp)
    80002814:	00013903          	ld	s2,0(sp)
    80002818:	02010113          	addi	sp,sp,32
    8000281c:	00008067          	ret
    80002820:	00048513          	mv	a0,s1
    80002824:	00000097          	auipc	ra,0x0
    80002828:	ea0080e7          	jalr	-352(ra) # 800026c4 <freeproc>
    8000282c:	00048513          	mv	a0,s1
    80002830:	fffff097          	auipc	ra,0xfffff
    80002834:	894080e7          	jalr	-1900(ra) # 800010c4 <release>
    80002838:	00090493          	mv	s1,s2
    8000283c:	fc9ff06f          	j	80002804 <allocproc+0xc8>
    80002840:	00048513          	mv	a0,s1
    80002844:	00000097          	auipc	ra,0x0
    80002848:	e80080e7          	jalr	-384(ra) # 800026c4 <freeproc>
    8000284c:	00048513          	mv	a0,s1
    80002850:	fffff097          	auipc	ra,0xfffff
    80002854:	874080e7          	jalr	-1932(ra) # 800010c4 <release>
    80002858:	00090493          	mv	s1,s2
    8000285c:	fa9ff06f          	j	80002804 <allocproc+0xc8>

0000000080002860 <userinit>:
    80002860:	fe010113          	addi	sp,sp,-32
    80002864:	00113c23          	sd	ra,24(sp)
    80002868:	00813823          	sd	s0,16(sp)
    8000286c:	00913423          	sd	s1,8(sp)
    80002870:	02010413          	addi	s0,sp,32
    80002874:	00000097          	auipc	ra,0x0
    80002878:	ec8080e7          	jalr	-312(ra) # 8000273c <allocproc>
    8000287c:	00050493          	mv	s1,a0
    80002880:	00008797          	auipc	a5,0x8
    80002884:	7aa7b423          	sd	a0,1960(a5) # 8000b028 <initproc>
    80002888:	03400613          	li	a2,52
    8000288c:	00008597          	auipc	a1,0x8
    80002890:	f9458593          	addi	a1,a1,-108 # 8000a820 <initcode>
    80002894:	05053503          	ld	a0,80(a0)
    80002898:	fffff097          	auipc	ra,0xfffff
    8000289c:	1e4080e7          	jalr	484(ra) # 80001a7c <uvminit>
    800028a0:	000017b7          	lui	a5,0x1
    800028a4:	04f4b423          	sd	a5,72(s1)
    800028a8:	0584b703          	ld	a4,88(s1)
    800028ac:	00073c23          	sd	zero,24(a4) # 1018 <_entry-0x7fffefe8>
    800028b0:	0584b703          	ld	a4,88(s1)
    800028b4:	02f73823          	sd	a5,48(a4)
    800028b8:	01000613          	li	a2,16
    800028bc:	00008597          	auipc	a1,0x8
    800028c0:	94458593          	addi	a1,a1,-1724 # 8000a200 <digits+0x1c0>
    800028c4:	15848513          	addi	a0,s1,344
    800028c8:	fffff097          	auipc	ra,0xfffff
    800028cc:	a5c080e7          	jalr	-1444(ra) # 80001324 <safestrcpy>
    800028d0:	00008517          	auipc	a0,0x8
    800028d4:	94050513          	addi	a0,a0,-1728 # 8000a210 <digits+0x1d0>
    800028d8:	00003097          	auipc	ra,0x3
    800028dc:	d88080e7          	jalr	-632(ra) # 80005660 <namei>
    800028e0:	14a4b823          	sd	a0,336(s1)
    800028e4:	00300793          	li	a5,3
    800028e8:	00f4ac23          	sw	a5,24(s1)
    800028ec:	00048513          	mv	a0,s1
    800028f0:	ffffe097          	auipc	ra,0xffffe
    800028f4:	7d4080e7          	jalr	2004(ra) # 800010c4 <release>
    800028f8:	01813083          	ld	ra,24(sp)
    800028fc:	01013403          	ld	s0,16(sp)
    80002900:	00813483          	ld	s1,8(sp)
    80002904:	02010113          	addi	sp,sp,32
    80002908:	00008067          	ret

000000008000290c <growproc>:
    8000290c:	fe010113          	addi	sp,sp,-32
    80002910:	00113c23          	sd	ra,24(sp)
    80002914:	00813823          	sd	s0,16(sp)
    80002918:	00913423          	sd	s1,8(sp)
    8000291c:	01213023          	sd	s2,0(sp)
    80002920:	02010413          	addi	s0,sp,32
    80002924:	00050493          	mv	s1,a0
    80002928:	00000097          	auipc	ra,0x0
    8000292c:	b14080e7          	jalr	-1260(ra) # 8000243c <myproc>
    80002930:	00050913          	mv	s2,a0
    80002934:	04853583          	ld	a1,72(a0)
    80002938:	0005879b          	sext.w	a5,a1
    8000293c:	02904863          	bgtz	s1,8000296c <growproc+0x60>
    80002940:	0404ce63          	bltz	s1,8000299c <growproc+0x90>
    80002944:	02079793          	slli	a5,a5,0x20
    80002948:	0207d793          	srli	a5,a5,0x20
    8000294c:	04f93423          	sd	a5,72(s2)
    80002950:	00000513          	li	a0,0
    80002954:	01813083          	ld	ra,24(sp)
    80002958:	01013403          	ld	s0,16(sp)
    8000295c:	00813483          	ld	s1,8(sp)
    80002960:	00013903          	ld	s2,0(sp)
    80002964:	02010113          	addi	sp,sp,32
    80002968:	00008067          	ret
    8000296c:	00f4863b          	addw	a2,s1,a5
    80002970:	02061613          	slli	a2,a2,0x20
    80002974:	02065613          	srli	a2,a2,0x20
    80002978:	02059593          	slli	a1,a1,0x20
    8000297c:	0205d593          	srli	a1,a1,0x20
    80002980:	05053503          	ld	a0,80(a0)
    80002984:	fffff097          	auipc	ra,0xfffff
    80002988:	220080e7          	jalr	544(ra) # 80001ba4 <uvmalloc>
    8000298c:	0005079b          	sext.w	a5,a0
    80002990:	fa079ae3          	bnez	a5,80002944 <growproc+0x38>
    80002994:	fff00513          	li	a0,-1
    80002998:	fbdff06f          	j	80002954 <growproc+0x48>
    8000299c:	00f4863b          	addw	a2,s1,a5
    800029a0:	02061613          	slli	a2,a2,0x20
    800029a4:	02065613          	srli	a2,a2,0x20
    800029a8:	02059593          	slli	a1,a1,0x20
    800029ac:	0205d593          	srli	a1,a1,0x20
    800029b0:	05053503          	ld	a0,80(a0)
    800029b4:	fffff097          	auipc	ra,0xfffff
    800029b8:	178080e7          	jalr	376(ra) # 80001b2c <uvmdealloc>
    800029bc:	0005079b          	sext.w	a5,a0
    800029c0:	f85ff06f          	j	80002944 <growproc+0x38>

00000000800029c4 <fork>:
    800029c4:	fc010113          	addi	sp,sp,-64
    800029c8:	02113c23          	sd	ra,56(sp)
    800029cc:	02813823          	sd	s0,48(sp)
    800029d0:	02913423          	sd	s1,40(sp)
    800029d4:	03213023          	sd	s2,32(sp)
    800029d8:	01313c23          	sd	s3,24(sp)
    800029dc:	01413823          	sd	s4,16(sp)
    800029e0:	01513423          	sd	s5,8(sp)
    800029e4:	04010413          	addi	s0,sp,64
    800029e8:	00000097          	auipc	ra,0x0
    800029ec:	a54080e7          	jalr	-1452(ra) # 8000243c <myproc>
    800029f0:	00050a93          	mv	s5,a0
    800029f4:	00000097          	auipc	ra,0x0
    800029f8:	d48080e7          	jalr	-696(ra) # 8000273c <allocproc>
    800029fc:	16050063          	beqz	a0,80002b5c <fork+0x198>
    80002a00:	00050a13          	mv	s4,a0
    80002a04:	048ab603          	ld	a2,72(s5)
    80002a08:	05053583          	ld	a1,80(a0)
    80002a0c:	050ab503          	ld	a0,80(s5)
    80002a10:	fffff097          	auipc	ra,0xfffff
    80002a14:	3ac080e7          	jalr	940(ra) # 80001dbc <uvmcopy>
    80002a18:	06054063          	bltz	a0,80002a78 <fork+0xb4>
    80002a1c:	048ab783          	ld	a5,72(s5)
    80002a20:	04fa3423          	sd	a5,72(s4)
    80002a24:	058ab683          	ld	a3,88(s5)
    80002a28:	00068793          	mv	a5,a3
    80002a2c:	058a3703          	ld	a4,88(s4)
    80002a30:	12068693          	addi	a3,a3,288
    80002a34:	0007b803          	ld	a6,0(a5) # 1000 <_entry-0x7ffff000>
    80002a38:	0087b503          	ld	a0,8(a5)
    80002a3c:	0107b583          	ld	a1,16(a5)
    80002a40:	0187b603          	ld	a2,24(a5)
    80002a44:	01073023          	sd	a6,0(a4)
    80002a48:	00a73423          	sd	a0,8(a4)
    80002a4c:	00b73823          	sd	a1,16(a4)
    80002a50:	00c73c23          	sd	a2,24(a4)
    80002a54:	02078793          	addi	a5,a5,32
    80002a58:	02070713          	addi	a4,a4,32
    80002a5c:	fcd79ce3          	bne	a5,a3,80002a34 <fork+0x70>
    80002a60:	058a3783          	ld	a5,88(s4)
    80002a64:	0607b823          	sd	zero,112(a5)
    80002a68:	0d0a8493          	addi	s1,s5,208
    80002a6c:	0d0a0913          	addi	s2,s4,208
    80002a70:	150a8993          	addi	s3,s5,336
    80002a74:	0300006f          	j	80002aa4 <fork+0xe0>
    80002a78:	000a0513          	mv	a0,s4
    80002a7c:	00000097          	auipc	ra,0x0
    80002a80:	c48080e7          	jalr	-952(ra) # 800026c4 <freeproc>
    80002a84:	000a0513          	mv	a0,s4
    80002a88:	ffffe097          	auipc	ra,0xffffe
    80002a8c:	63c080e7          	jalr	1596(ra) # 800010c4 <release>
    80002a90:	fff00913          	li	s2,-1
    80002a94:	0a00006f          	j	80002b34 <fork+0x170>
    80002a98:	00848493          	addi	s1,s1,8
    80002a9c:	00890913          	addi	s2,s2,8
    80002aa0:	01348e63          	beq	s1,s3,80002abc <fork+0xf8>
    80002aa4:	0004b503          	ld	a0,0(s1)
    80002aa8:	fe0508e3          	beqz	a0,80002a98 <fork+0xd4>
    80002aac:	00003097          	auipc	ra,0x3
    80002ab0:	4c0080e7          	jalr	1216(ra) # 80005f6c <filedup>
    80002ab4:	00a93023          	sd	a0,0(s2)
    80002ab8:	fe1ff06f          	j	80002a98 <fork+0xd4>
    80002abc:	150ab503          	ld	a0,336(s5)
    80002ac0:	00002097          	auipc	ra,0x2
    80002ac4:	040080e7          	jalr	64(ra) # 80004b00 <idup>
    80002ac8:	14aa3823          	sd	a0,336(s4)
    80002acc:	01000613          	li	a2,16
    80002ad0:	158a8593          	addi	a1,s5,344
    80002ad4:	158a0513          	addi	a0,s4,344
    80002ad8:	fffff097          	auipc	ra,0xfffff
    80002adc:	84c080e7          	jalr	-1972(ra) # 80001324 <safestrcpy>
    80002ae0:	030a2903          	lw	s2,48(s4)
    80002ae4:	000a0513          	mv	a0,s4
    80002ae8:	ffffe097          	auipc	ra,0xffffe
    80002aec:	5dc080e7          	jalr	1500(ra) # 800010c4 <release>
    80002af0:	00010497          	auipc	s1,0x10
    80002af4:	7c848493          	addi	s1,s1,1992 # 800132b8 <wait_lock>
    80002af8:	00048513          	mv	a0,s1
    80002afc:	ffffe097          	auipc	ra,0xffffe
    80002b00:	4d0080e7          	jalr	1232(ra) # 80000fcc <acquire>
    80002b04:	035a3c23          	sd	s5,56(s4)
    80002b08:	00048513          	mv	a0,s1
    80002b0c:	ffffe097          	auipc	ra,0xffffe
    80002b10:	5b8080e7          	jalr	1464(ra) # 800010c4 <release>
    80002b14:	000a0513          	mv	a0,s4
    80002b18:	ffffe097          	auipc	ra,0xffffe
    80002b1c:	4b4080e7          	jalr	1204(ra) # 80000fcc <acquire>
    80002b20:	00300793          	li	a5,3
    80002b24:	00fa2c23          	sw	a5,24(s4)
    80002b28:	000a0513          	mv	a0,s4
    80002b2c:	ffffe097          	auipc	ra,0xffffe
    80002b30:	598080e7          	jalr	1432(ra) # 800010c4 <release>
    80002b34:	00090513          	mv	a0,s2
    80002b38:	03813083          	ld	ra,56(sp)
    80002b3c:	03013403          	ld	s0,48(sp)
    80002b40:	02813483          	ld	s1,40(sp)
    80002b44:	02013903          	ld	s2,32(sp)
    80002b48:	01813983          	ld	s3,24(sp)
    80002b4c:	01013a03          	ld	s4,16(sp)
    80002b50:	00813a83          	ld	s5,8(sp)
    80002b54:	04010113          	addi	sp,sp,64
    80002b58:	00008067          	ret
    80002b5c:	fff00913          	li	s2,-1
    80002b60:	fd5ff06f          	j	80002b34 <fork+0x170>

0000000080002b64 <scheduler>:
    80002b64:	fc010113          	addi	sp,sp,-64
    80002b68:	02113c23          	sd	ra,56(sp)
    80002b6c:	02813823          	sd	s0,48(sp)
    80002b70:	02913423          	sd	s1,40(sp)
    80002b74:	03213023          	sd	s2,32(sp)
    80002b78:	01313c23          	sd	s3,24(sp)
    80002b7c:	01413823          	sd	s4,16(sp)
    80002b80:	01513423          	sd	s5,8(sp)
    80002b84:	01613023          	sd	s6,0(sp)
    80002b88:	04010413          	addi	s0,sp,64
    80002b8c:	00020793          	mv	a5,tp
    80002b90:	0007879b          	sext.w	a5,a5
    80002b94:	00779a93          	slli	s5,a5,0x7
    80002b98:	00010717          	auipc	a4,0x10
    80002b9c:	70870713          	addi	a4,a4,1800 # 800132a0 <pid_lock>
    80002ba0:	01570733          	add	a4,a4,s5
    80002ba4:	02073823          	sd	zero,48(a4)
    80002ba8:	00010717          	auipc	a4,0x10
    80002bac:	73070713          	addi	a4,a4,1840 # 800132d8 <cpus+0x8>
    80002bb0:	00ea8ab3          	add	s5,s5,a4
    80002bb4:	00300993          	li	s3,3
    80002bb8:	00400b13          	li	s6,4
    80002bbc:	00779793          	slli	a5,a5,0x7
    80002bc0:	00010a17          	auipc	s4,0x10
    80002bc4:	6e0a0a13          	addi	s4,s4,1760 # 800132a0 <pid_lock>
    80002bc8:	00fa0a33          	add	s4,s4,a5
    80002bcc:	00016917          	auipc	s2,0x16
    80002bd0:	50490913          	addi	s2,s2,1284 # 800190d0 <tickslock>
    80002bd4:	100027f3          	csrr	a5,sstatus
    80002bd8:	0027e793          	ori	a5,a5,2
    80002bdc:	10079073          	csrw	sstatus,a5
    80002be0:	00011497          	auipc	s1,0x11
    80002be4:	af048493          	addi	s1,s1,-1296 # 800136d0 <proc>
    80002be8:	0180006f          	j	80002c00 <scheduler+0x9c>
    80002bec:	00048513          	mv	a0,s1
    80002bf0:	ffffe097          	auipc	ra,0xffffe
    80002bf4:	4d4080e7          	jalr	1236(ra) # 800010c4 <release>
    80002bf8:	16848493          	addi	s1,s1,360
    80002bfc:	fd248ce3          	beq	s1,s2,80002bd4 <scheduler+0x70>
    80002c00:	00048513          	mv	a0,s1
    80002c04:	ffffe097          	auipc	ra,0xffffe
    80002c08:	3c8080e7          	jalr	968(ra) # 80000fcc <acquire>
    80002c0c:	0184a783          	lw	a5,24(s1)
    80002c10:	fd379ee3          	bne	a5,s3,80002bec <scheduler+0x88>
    80002c14:	0164ac23          	sw	s6,24(s1)
    80002c18:	029a3823          	sd	s1,48(s4)
    80002c1c:	06048593          	addi	a1,s1,96
    80002c20:	000a8513          	mv	a0,s5
    80002c24:	00001097          	auipc	ra,0x1
    80002c28:	894080e7          	jalr	-1900(ra) # 800034b8 <swtch>
    80002c2c:	020a3823          	sd	zero,48(s4)
    80002c30:	fbdff06f          	j	80002bec <scheduler+0x88>

0000000080002c34 <sched>:
    80002c34:	fd010113          	addi	sp,sp,-48
    80002c38:	02113423          	sd	ra,40(sp)
    80002c3c:	02813023          	sd	s0,32(sp)
    80002c40:	00913c23          	sd	s1,24(sp)
    80002c44:	01213823          	sd	s2,16(sp)
    80002c48:	01313423          	sd	s3,8(sp)
    80002c4c:	03010413          	addi	s0,sp,48
    80002c50:	fffff097          	auipc	ra,0xfffff
    80002c54:	7ec080e7          	jalr	2028(ra) # 8000243c <myproc>
    80002c58:	00050493          	mv	s1,a0
    80002c5c:	ffffe097          	auipc	ra,0xffffe
    80002c60:	2b0080e7          	jalr	688(ra) # 80000f0c <holding>
    80002c64:	0a050863          	beqz	a0,80002d14 <sched+0xe0>
    80002c68:	00020793          	mv	a5,tp
    80002c6c:	0007879b          	sext.w	a5,a5
    80002c70:	00779793          	slli	a5,a5,0x7
    80002c74:	00010717          	auipc	a4,0x10
    80002c78:	62c70713          	addi	a4,a4,1580 # 800132a0 <pid_lock>
    80002c7c:	00f707b3          	add	a5,a4,a5
    80002c80:	0a87a703          	lw	a4,168(a5)
    80002c84:	00100793          	li	a5,1
    80002c88:	08f71e63          	bne	a4,a5,80002d24 <sched+0xf0>
    80002c8c:	0184a703          	lw	a4,24(s1)
    80002c90:	00400793          	li	a5,4
    80002c94:	0af70063          	beq	a4,a5,80002d34 <sched+0x100>
    80002c98:	100027f3          	csrr	a5,sstatus
    80002c9c:	0027f793          	andi	a5,a5,2
    80002ca0:	0a079263          	bnez	a5,80002d44 <sched+0x110>
    80002ca4:	00020793          	mv	a5,tp
    80002ca8:	00010917          	auipc	s2,0x10
    80002cac:	5f890913          	addi	s2,s2,1528 # 800132a0 <pid_lock>
    80002cb0:	0007879b          	sext.w	a5,a5
    80002cb4:	00779793          	slli	a5,a5,0x7
    80002cb8:	00f907b3          	add	a5,s2,a5
    80002cbc:	0ac7a983          	lw	s3,172(a5)
    80002cc0:	00020793          	mv	a5,tp
    80002cc4:	0007879b          	sext.w	a5,a5
    80002cc8:	00779793          	slli	a5,a5,0x7
    80002ccc:	00010597          	auipc	a1,0x10
    80002cd0:	60c58593          	addi	a1,a1,1548 # 800132d8 <cpus+0x8>
    80002cd4:	00b785b3          	add	a1,a5,a1
    80002cd8:	06048513          	addi	a0,s1,96
    80002cdc:	00000097          	auipc	ra,0x0
    80002ce0:	7dc080e7          	jalr	2012(ra) # 800034b8 <swtch>
    80002ce4:	00020793          	mv	a5,tp
    80002ce8:	0007879b          	sext.w	a5,a5
    80002cec:	00779793          	slli	a5,a5,0x7
    80002cf0:	00f90933          	add	s2,s2,a5
    80002cf4:	0b392623          	sw	s3,172(s2)
    80002cf8:	02813083          	ld	ra,40(sp)
    80002cfc:	02013403          	ld	s0,32(sp)
    80002d00:	01813483          	ld	s1,24(sp)
    80002d04:	01013903          	ld	s2,16(sp)
    80002d08:	00813983          	ld	s3,8(sp)
    80002d0c:	03010113          	addi	sp,sp,48
    80002d10:	00008067          	ret
    80002d14:	00007517          	auipc	a0,0x7
    80002d18:	50450513          	addi	a0,a0,1284 # 8000a218 <digits+0x1d8>
    80002d1c:	ffffe097          	auipc	ra,0xffffe
    80002d20:	9b4080e7          	jalr	-1612(ra) # 800006d0 <panic>
    80002d24:	00007517          	auipc	a0,0x7
    80002d28:	50450513          	addi	a0,a0,1284 # 8000a228 <digits+0x1e8>
    80002d2c:	ffffe097          	auipc	ra,0xffffe
    80002d30:	9a4080e7          	jalr	-1628(ra) # 800006d0 <panic>
    80002d34:	00007517          	auipc	a0,0x7
    80002d38:	50450513          	addi	a0,a0,1284 # 8000a238 <digits+0x1f8>
    80002d3c:	ffffe097          	auipc	ra,0xffffe
    80002d40:	994080e7          	jalr	-1644(ra) # 800006d0 <panic>
    80002d44:	00007517          	auipc	a0,0x7
    80002d48:	50450513          	addi	a0,a0,1284 # 8000a248 <digits+0x208>
    80002d4c:	ffffe097          	auipc	ra,0xffffe
    80002d50:	984080e7          	jalr	-1660(ra) # 800006d0 <panic>

0000000080002d54 <yield>:
    80002d54:	fe010113          	addi	sp,sp,-32
    80002d58:	00113c23          	sd	ra,24(sp)
    80002d5c:	00813823          	sd	s0,16(sp)
    80002d60:	00913423          	sd	s1,8(sp)
    80002d64:	02010413          	addi	s0,sp,32
    80002d68:	fffff097          	auipc	ra,0xfffff
    80002d6c:	6d4080e7          	jalr	1748(ra) # 8000243c <myproc>
    80002d70:	00050493          	mv	s1,a0
    80002d74:	ffffe097          	auipc	ra,0xffffe
    80002d78:	258080e7          	jalr	600(ra) # 80000fcc <acquire>
    80002d7c:	00300793          	li	a5,3
    80002d80:	00f4ac23          	sw	a5,24(s1)
    80002d84:	00000097          	auipc	ra,0x0
    80002d88:	eb0080e7          	jalr	-336(ra) # 80002c34 <sched>
    80002d8c:	00048513          	mv	a0,s1
    80002d90:	ffffe097          	auipc	ra,0xffffe
    80002d94:	334080e7          	jalr	820(ra) # 800010c4 <release>
    80002d98:	01813083          	ld	ra,24(sp)
    80002d9c:	01013403          	ld	s0,16(sp)
    80002da0:	00813483          	ld	s1,8(sp)
    80002da4:	02010113          	addi	sp,sp,32
    80002da8:	00008067          	ret

0000000080002dac <sleep>:
    80002dac:	fd010113          	addi	sp,sp,-48
    80002db0:	02113423          	sd	ra,40(sp)
    80002db4:	02813023          	sd	s0,32(sp)
    80002db8:	00913c23          	sd	s1,24(sp)
    80002dbc:	01213823          	sd	s2,16(sp)
    80002dc0:	01313423          	sd	s3,8(sp)
    80002dc4:	03010413          	addi	s0,sp,48
    80002dc8:	00050993          	mv	s3,a0
    80002dcc:	00058913          	mv	s2,a1
    80002dd0:	fffff097          	auipc	ra,0xfffff
    80002dd4:	66c080e7          	jalr	1644(ra) # 8000243c <myproc>
    80002dd8:	00050493          	mv	s1,a0
    80002ddc:	ffffe097          	auipc	ra,0xffffe
    80002de0:	1f0080e7          	jalr	496(ra) # 80000fcc <acquire>
    80002de4:	00090513          	mv	a0,s2
    80002de8:	ffffe097          	auipc	ra,0xffffe
    80002dec:	2dc080e7          	jalr	732(ra) # 800010c4 <release>
    80002df0:	0334b023          	sd	s3,32(s1)
    80002df4:	00200793          	li	a5,2
    80002df8:	00f4ac23          	sw	a5,24(s1)
    80002dfc:	00000097          	auipc	ra,0x0
    80002e00:	e38080e7          	jalr	-456(ra) # 80002c34 <sched>
    80002e04:	0204b023          	sd	zero,32(s1)
    80002e08:	00048513          	mv	a0,s1
    80002e0c:	ffffe097          	auipc	ra,0xffffe
    80002e10:	2b8080e7          	jalr	696(ra) # 800010c4 <release>
    80002e14:	00090513          	mv	a0,s2
    80002e18:	ffffe097          	auipc	ra,0xffffe
    80002e1c:	1b4080e7          	jalr	436(ra) # 80000fcc <acquire>
    80002e20:	02813083          	ld	ra,40(sp)
    80002e24:	02013403          	ld	s0,32(sp)
    80002e28:	01813483          	ld	s1,24(sp)
    80002e2c:	01013903          	ld	s2,16(sp)
    80002e30:	00813983          	ld	s3,8(sp)
    80002e34:	03010113          	addi	sp,sp,48
    80002e38:	00008067          	ret

0000000080002e3c <wait>:
    80002e3c:	fb010113          	addi	sp,sp,-80
    80002e40:	04113423          	sd	ra,72(sp)
    80002e44:	04813023          	sd	s0,64(sp)
    80002e48:	02913c23          	sd	s1,56(sp)
    80002e4c:	03213823          	sd	s2,48(sp)
    80002e50:	03313423          	sd	s3,40(sp)
    80002e54:	03413023          	sd	s4,32(sp)
    80002e58:	01513c23          	sd	s5,24(sp)
    80002e5c:	01613823          	sd	s6,16(sp)
    80002e60:	01713423          	sd	s7,8(sp)
    80002e64:	01813023          	sd	s8,0(sp)
    80002e68:	05010413          	addi	s0,sp,80
    80002e6c:	00050b13          	mv	s6,a0
    80002e70:	fffff097          	auipc	ra,0xfffff
    80002e74:	5cc080e7          	jalr	1484(ra) # 8000243c <myproc>
    80002e78:	00050913          	mv	s2,a0
    80002e7c:	00010517          	auipc	a0,0x10
    80002e80:	43c50513          	addi	a0,a0,1084 # 800132b8 <wait_lock>
    80002e84:	ffffe097          	auipc	ra,0xffffe
    80002e88:	148080e7          	jalr	328(ra) # 80000fcc <acquire>
    80002e8c:	00000b93          	li	s7,0
    80002e90:	00500a13          	li	s4,5
    80002e94:	00100a93          	li	s5,1
    80002e98:	00016997          	auipc	s3,0x16
    80002e9c:	23898993          	addi	s3,s3,568 # 800190d0 <tickslock>
    80002ea0:	00010c17          	auipc	s8,0x10
    80002ea4:	418c0c13          	addi	s8,s8,1048 # 800132b8 <wait_lock>
    80002ea8:	000b8713          	mv	a4,s7
    80002eac:	00011497          	auipc	s1,0x11
    80002eb0:	82448493          	addi	s1,s1,-2012 # 800136d0 <proc>
    80002eb4:	0800006f          	j	80002f34 <wait+0xf8>
    80002eb8:	0304a983          	lw	s3,48(s1)
    80002ebc:	020b0063          	beqz	s6,80002edc <wait+0xa0>
    80002ec0:	00400693          	li	a3,4
    80002ec4:	02c48613          	addi	a2,s1,44
    80002ec8:	000b0593          	mv	a1,s6
    80002ecc:	05093503          	ld	a0,80(s2)
    80002ed0:	fffff097          	auipc	ra,0xfffff
    80002ed4:	074080e7          	jalr	116(ra) # 80001f44 <copyout>
    80002ed8:	02054863          	bltz	a0,80002f08 <wait+0xcc>
    80002edc:	00048513          	mv	a0,s1
    80002ee0:	fffff097          	auipc	ra,0xfffff
    80002ee4:	7e4080e7          	jalr	2020(ra) # 800026c4 <freeproc>
    80002ee8:	00048513          	mv	a0,s1
    80002eec:	ffffe097          	auipc	ra,0xffffe
    80002ef0:	1d8080e7          	jalr	472(ra) # 800010c4 <release>
    80002ef4:	00010517          	auipc	a0,0x10
    80002ef8:	3c450513          	addi	a0,a0,964 # 800132b8 <wait_lock>
    80002efc:	ffffe097          	auipc	ra,0xffffe
    80002f00:	1c8080e7          	jalr	456(ra) # 800010c4 <release>
    80002f04:	0800006f          	j	80002f84 <wait+0x148>
    80002f08:	00048513          	mv	a0,s1
    80002f0c:	ffffe097          	auipc	ra,0xffffe
    80002f10:	1b8080e7          	jalr	440(ra) # 800010c4 <release>
    80002f14:	00010517          	auipc	a0,0x10
    80002f18:	3a450513          	addi	a0,a0,932 # 800132b8 <wait_lock>
    80002f1c:	ffffe097          	auipc	ra,0xffffe
    80002f20:	1a8080e7          	jalr	424(ra) # 800010c4 <release>
    80002f24:	fff00993          	li	s3,-1
    80002f28:	05c0006f          	j	80002f84 <wait+0x148>
    80002f2c:	16848493          	addi	s1,s1,360
    80002f30:	03348a63          	beq	s1,s3,80002f64 <wait+0x128>
    80002f34:	0384b783          	ld	a5,56(s1)
    80002f38:	ff279ae3          	bne	a5,s2,80002f2c <wait+0xf0>
    80002f3c:	00048513          	mv	a0,s1
    80002f40:	ffffe097          	auipc	ra,0xffffe
    80002f44:	08c080e7          	jalr	140(ra) # 80000fcc <acquire>
    80002f48:	0184a783          	lw	a5,24(s1)
    80002f4c:	f74786e3          	beq	a5,s4,80002eb8 <wait+0x7c>
    80002f50:	00048513          	mv	a0,s1
    80002f54:	ffffe097          	auipc	ra,0xffffe
    80002f58:	170080e7          	jalr	368(ra) # 800010c4 <release>
    80002f5c:	000a8713          	mv	a4,s5
    80002f60:	fcdff06f          	j	80002f2c <wait+0xf0>
    80002f64:	00070663          	beqz	a4,80002f70 <wait+0x134>
    80002f68:	02892783          	lw	a5,40(s2)
    80002f6c:	04078663          	beqz	a5,80002fb8 <wait+0x17c>
    80002f70:	00010517          	auipc	a0,0x10
    80002f74:	34850513          	addi	a0,a0,840 # 800132b8 <wait_lock>
    80002f78:	ffffe097          	auipc	ra,0xffffe
    80002f7c:	14c080e7          	jalr	332(ra) # 800010c4 <release>
    80002f80:	fff00993          	li	s3,-1
    80002f84:	00098513          	mv	a0,s3
    80002f88:	04813083          	ld	ra,72(sp)
    80002f8c:	04013403          	ld	s0,64(sp)
    80002f90:	03813483          	ld	s1,56(sp)
    80002f94:	03013903          	ld	s2,48(sp)
    80002f98:	02813983          	ld	s3,40(sp)
    80002f9c:	02013a03          	ld	s4,32(sp)
    80002fa0:	01813a83          	ld	s5,24(sp)
    80002fa4:	01013b03          	ld	s6,16(sp)
    80002fa8:	00813b83          	ld	s7,8(sp)
    80002fac:	00013c03          	ld	s8,0(sp)
    80002fb0:	05010113          	addi	sp,sp,80
    80002fb4:	00008067          	ret
    80002fb8:	000c0593          	mv	a1,s8
    80002fbc:	00090513          	mv	a0,s2
    80002fc0:	00000097          	auipc	ra,0x0
    80002fc4:	dec080e7          	jalr	-532(ra) # 80002dac <sleep>
    80002fc8:	ee1ff06f          	j	80002ea8 <wait+0x6c>

0000000080002fcc <wakeup>:
    80002fcc:	fc010113          	addi	sp,sp,-64
    80002fd0:	02113c23          	sd	ra,56(sp)
    80002fd4:	02813823          	sd	s0,48(sp)
    80002fd8:	02913423          	sd	s1,40(sp)
    80002fdc:	03213023          	sd	s2,32(sp)
    80002fe0:	01313c23          	sd	s3,24(sp)
    80002fe4:	01413823          	sd	s4,16(sp)
    80002fe8:	01513423          	sd	s5,8(sp)
    80002fec:	04010413          	addi	s0,sp,64
    80002ff0:	00050a13          	mv	s4,a0
    80002ff4:	00010497          	auipc	s1,0x10
    80002ff8:	6dc48493          	addi	s1,s1,1756 # 800136d0 <proc>
    80002ffc:	00200993          	li	s3,2
    80003000:	00300a93          	li	s5,3
    80003004:	00016917          	auipc	s2,0x16
    80003008:	0cc90913          	addi	s2,s2,204 # 800190d0 <tickslock>
    8000300c:	0180006f          	j	80003024 <wakeup+0x58>
    80003010:	00048513          	mv	a0,s1
    80003014:	ffffe097          	auipc	ra,0xffffe
    80003018:	0b0080e7          	jalr	176(ra) # 800010c4 <release>
    8000301c:	16848493          	addi	s1,s1,360
    80003020:	03248a63          	beq	s1,s2,80003054 <wakeup+0x88>
    80003024:	fffff097          	auipc	ra,0xfffff
    80003028:	418080e7          	jalr	1048(ra) # 8000243c <myproc>
    8000302c:	fea488e3          	beq	s1,a0,8000301c <wakeup+0x50>
    80003030:	00048513          	mv	a0,s1
    80003034:	ffffe097          	auipc	ra,0xffffe
    80003038:	f98080e7          	jalr	-104(ra) # 80000fcc <acquire>
    8000303c:	0184a783          	lw	a5,24(s1)
    80003040:	fd3798e3          	bne	a5,s3,80003010 <wakeup+0x44>
    80003044:	0204b783          	ld	a5,32(s1)
    80003048:	fd4794e3          	bne	a5,s4,80003010 <wakeup+0x44>
    8000304c:	0154ac23          	sw	s5,24(s1)
    80003050:	fc1ff06f          	j	80003010 <wakeup+0x44>
    80003054:	03813083          	ld	ra,56(sp)
    80003058:	03013403          	ld	s0,48(sp)
    8000305c:	02813483          	ld	s1,40(sp)
    80003060:	02013903          	ld	s2,32(sp)
    80003064:	01813983          	ld	s3,24(sp)
    80003068:	01013a03          	ld	s4,16(sp)
    8000306c:	00813a83          	ld	s5,8(sp)
    80003070:	04010113          	addi	sp,sp,64
    80003074:	00008067          	ret

0000000080003078 <reparent>:
    80003078:	fd010113          	addi	sp,sp,-48
    8000307c:	02113423          	sd	ra,40(sp)
    80003080:	02813023          	sd	s0,32(sp)
    80003084:	00913c23          	sd	s1,24(sp)
    80003088:	01213823          	sd	s2,16(sp)
    8000308c:	01313423          	sd	s3,8(sp)
    80003090:	01413023          	sd	s4,0(sp)
    80003094:	03010413          	addi	s0,sp,48
    80003098:	00050913          	mv	s2,a0
    8000309c:	00010497          	auipc	s1,0x10
    800030a0:	63448493          	addi	s1,s1,1588 # 800136d0 <proc>
    800030a4:	00008a17          	auipc	s4,0x8
    800030a8:	f84a0a13          	addi	s4,s4,-124 # 8000b028 <initproc>
    800030ac:	00016997          	auipc	s3,0x16
    800030b0:	02498993          	addi	s3,s3,36 # 800190d0 <tickslock>
    800030b4:	00c0006f          	j	800030c0 <reparent+0x48>
    800030b8:	16848493          	addi	s1,s1,360
    800030bc:	03348063          	beq	s1,s3,800030dc <reparent+0x64>
    800030c0:	0384b783          	ld	a5,56(s1)
    800030c4:	ff279ae3          	bne	a5,s2,800030b8 <reparent+0x40>
    800030c8:	000a3503          	ld	a0,0(s4)
    800030cc:	02a4bc23          	sd	a0,56(s1)
    800030d0:	00000097          	auipc	ra,0x0
    800030d4:	efc080e7          	jalr	-260(ra) # 80002fcc <wakeup>
    800030d8:	fe1ff06f          	j	800030b8 <reparent+0x40>
    800030dc:	02813083          	ld	ra,40(sp)
    800030e0:	02013403          	ld	s0,32(sp)
    800030e4:	01813483          	ld	s1,24(sp)
    800030e8:	01013903          	ld	s2,16(sp)
    800030ec:	00813983          	ld	s3,8(sp)
    800030f0:	00013a03          	ld	s4,0(sp)
    800030f4:	03010113          	addi	sp,sp,48
    800030f8:	00008067          	ret

00000000800030fc <exit>:
    800030fc:	fd010113          	addi	sp,sp,-48
    80003100:	02113423          	sd	ra,40(sp)
    80003104:	02813023          	sd	s0,32(sp)
    80003108:	00913c23          	sd	s1,24(sp)
    8000310c:	01213823          	sd	s2,16(sp)
    80003110:	01313423          	sd	s3,8(sp)
    80003114:	01413023          	sd	s4,0(sp)
    80003118:	03010413          	addi	s0,sp,48
    8000311c:	00050a13          	mv	s4,a0
    80003120:	fffff097          	auipc	ra,0xfffff
    80003124:	31c080e7          	jalr	796(ra) # 8000243c <myproc>
    80003128:	00050993          	mv	s3,a0
    8000312c:	00008797          	auipc	a5,0x8
    80003130:	efc7b783          	ld	a5,-260(a5) # 8000b028 <initproc>
    80003134:	0d050493          	addi	s1,a0,208
    80003138:	15050913          	addi	s2,a0,336
    8000313c:	02a79463          	bne	a5,a0,80003164 <exit+0x68>
    80003140:	00007517          	auipc	a0,0x7
    80003144:	12050513          	addi	a0,a0,288 # 8000a260 <digits+0x220>
    80003148:	ffffd097          	auipc	ra,0xffffd
    8000314c:	588080e7          	jalr	1416(ra) # 800006d0 <panic>
    80003150:	00003097          	auipc	ra,0x3
    80003154:	e8c080e7          	jalr	-372(ra) # 80005fdc <fileclose>
    80003158:	0004b023          	sd	zero,0(s1)
    8000315c:	00848493          	addi	s1,s1,8
    80003160:	01248863          	beq	s1,s2,80003170 <exit+0x74>
    80003164:	0004b503          	ld	a0,0(s1)
    80003168:	fe0514e3          	bnez	a0,80003150 <exit+0x54>
    8000316c:	ff1ff06f          	j	8000315c <exit+0x60>
    80003170:	00002097          	auipc	ra,0x2
    80003174:	7e0080e7          	jalr	2016(ra) # 80005950 <begin_op>
    80003178:	1509b503          	ld	a0,336(s3)
    8000317c:	00002097          	auipc	ra,0x2
    80003180:	c40080e7          	jalr	-960(ra) # 80004dbc <iput>
    80003184:	00003097          	auipc	ra,0x3
    80003188:	880080e7          	jalr	-1920(ra) # 80005a04 <end_op>
    8000318c:	1409b823          	sd	zero,336(s3)
    80003190:	00010497          	auipc	s1,0x10
    80003194:	12848493          	addi	s1,s1,296 # 800132b8 <wait_lock>
    80003198:	00048513          	mv	a0,s1
    8000319c:	ffffe097          	auipc	ra,0xffffe
    800031a0:	e30080e7          	jalr	-464(ra) # 80000fcc <acquire>
    800031a4:	00098513          	mv	a0,s3
    800031a8:	00000097          	auipc	ra,0x0
    800031ac:	ed0080e7          	jalr	-304(ra) # 80003078 <reparent>
    800031b0:	0389b503          	ld	a0,56(s3)
    800031b4:	00000097          	auipc	ra,0x0
    800031b8:	e18080e7          	jalr	-488(ra) # 80002fcc <wakeup>
    800031bc:	00098513          	mv	a0,s3
    800031c0:	ffffe097          	auipc	ra,0xffffe
    800031c4:	e0c080e7          	jalr	-500(ra) # 80000fcc <acquire>
    800031c8:	0349a623          	sw	s4,44(s3)
    800031cc:	00500793          	li	a5,5
    800031d0:	00f9ac23          	sw	a5,24(s3)
    800031d4:	00048513          	mv	a0,s1
    800031d8:	ffffe097          	auipc	ra,0xffffe
    800031dc:	eec080e7          	jalr	-276(ra) # 800010c4 <release>
    800031e0:	00000097          	auipc	ra,0x0
    800031e4:	a54080e7          	jalr	-1452(ra) # 80002c34 <sched>
    800031e8:	00007517          	auipc	a0,0x7
    800031ec:	08850513          	addi	a0,a0,136 # 8000a270 <digits+0x230>
    800031f0:	ffffd097          	auipc	ra,0xffffd
    800031f4:	4e0080e7          	jalr	1248(ra) # 800006d0 <panic>

00000000800031f8 <kill>:
    800031f8:	fd010113          	addi	sp,sp,-48
    800031fc:	02113423          	sd	ra,40(sp)
    80003200:	02813023          	sd	s0,32(sp)
    80003204:	00913c23          	sd	s1,24(sp)
    80003208:	01213823          	sd	s2,16(sp)
    8000320c:	01313423          	sd	s3,8(sp)
    80003210:	03010413          	addi	s0,sp,48
    80003214:	00050913          	mv	s2,a0
    80003218:	00010497          	auipc	s1,0x10
    8000321c:	4b848493          	addi	s1,s1,1208 # 800136d0 <proc>
    80003220:	00016997          	auipc	s3,0x16
    80003224:	eb098993          	addi	s3,s3,-336 # 800190d0 <tickslock>
    80003228:	00048513          	mv	a0,s1
    8000322c:	ffffe097          	auipc	ra,0xffffe
    80003230:	da0080e7          	jalr	-608(ra) # 80000fcc <acquire>
    80003234:	0304a783          	lw	a5,48(s1)
    80003238:	03278063          	beq	a5,s2,80003258 <kill+0x60>
    8000323c:	00048513          	mv	a0,s1
    80003240:	ffffe097          	auipc	ra,0xffffe
    80003244:	e84080e7          	jalr	-380(ra) # 800010c4 <release>
    80003248:	16848493          	addi	s1,s1,360
    8000324c:	fd349ee3          	bne	s1,s3,80003228 <kill+0x30>
    80003250:	fff00513          	li	a0,-1
    80003254:	0280006f          	j	8000327c <kill+0x84>
    80003258:	00100793          	li	a5,1
    8000325c:	02f4a423          	sw	a5,40(s1)
    80003260:	0184a703          	lw	a4,24(s1)
    80003264:	00200793          	li	a5,2
    80003268:	02f70863          	beq	a4,a5,80003298 <kill+0xa0>
    8000326c:	00048513          	mv	a0,s1
    80003270:	ffffe097          	auipc	ra,0xffffe
    80003274:	e54080e7          	jalr	-428(ra) # 800010c4 <release>
    80003278:	00000513          	li	a0,0
    8000327c:	02813083          	ld	ra,40(sp)
    80003280:	02013403          	ld	s0,32(sp)
    80003284:	01813483          	ld	s1,24(sp)
    80003288:	01013903          	ld	s2,16(sp)
    8000328c:	00813983          	ld	s3,8(sp)
    80003290:	03010113          	addi	sp,sp,48
    80003294:	00008067          	ret
    80003298:	00300793          	li	a5,3
    8000329c:	00f4ac23          	sw	a5,24(s1)
    800032a0:	fcdff06f          	j	8000326c <kill+0x74>

00000000800032a4 <either_copyout>:
    800032a4:	fd010113          	addi	sp,sp,-48
    800032a8:	02113423          	sd	ra,40(sp)
    800032ac:	02813023          	sd	s0,32(sp)
    800032b0:	00913c23          	sd	s1,24(sp)
    800032b4:	01213823          	sd	s2,16(sp)
    800032b8:	01313423          	sd	s3,8(sp)
    800032bc:	01413023          	sd	s4,0(sp)
    800032c0:	03010413          	addi	s0,sp,48
    800032c4:	00050493          	mv	s1,a0
    800032c8:	00058913          	mv	s2,a1
    800032cc:	00060993          	mv	s3,a2
    800032d0:	00068a13          	mv	s4,a3
    800032d4:	fffff097          	auipc	ra,0xfffff
    800032d8:	168080e7          	jalr	360(ra) # 8000243c <myproc>
    800032dc:	02048e63          	beqz	s1,80003318 <either_copyout+0x74>
    800032e0:	000a0693          	mv	a3,s4
    800032e4:	00098613          	mv	a2,s3
    800032e8:	00090593          	mv	a1,s2
    800032ec:	05053503          	ld	a0,80(a0)
    800032f0:	fffff097          	auipc	ra,0xfffff
    800032f4:	c54080e7          	jalr	-940(ra) # 80001f44 <copyout>
    800032f8:	02813083          	ld	ra,40(sp)
    800032fc:	02013403          	ld	s0,32(sp)
    80003300:	01813483          	ld	s1,24(sp)
    80003304:	01013903          	ld	s2,16(sp)
    80003308:	00813983          	ld	s3,8(sp)
    8000330c:	00013a03          	ld	s4,0(sp)
    80003310:	03010113          	addi	sp,sp,48
    80003314:	00008067          	ret
    80003318:	000a061b          	sext.w	a2,s4
    8000331c:	00098593          	mv	a1,s3
    80003320:	00090513          	mv	a0,s2
    80003324:	ffffe097          	auipc	ra,0xffffe
    80003328:	e94080e7          	jalr	-364(ra) # 800011b8 <memmove>
    8000332c:	00048513          	mv	a0,s1
    80003330:	fc9ff06f          	j	800032f8 <either_copyout+0x54>

0000000080003334 <either_copyin>:
    80003334:	fd010113          	addi	sp,sp,-48
    80003338:	02113423          	sd	ra,40(sp)
    8000333c:	02813023          	sd	s0,32(sp)
    80003340:	00913c23          	sd	s1,24(sp)
    80003344:	01213823          	sd	s2,16(sp)
    80003348:	01313423          	sd	s3,8(sp)
    8000334c:	01413023          	sd	s4,0(sp)
    80003350:	03010413          	addi	s0,sp,48
    80003354:	00050913          	mv	s2,a0
    80003358:	00058493          	mv	s1,a1
    8000335c:	00060993          	mv	s3,a2
    80003360:	00068a13          	mv	s4,a3
    80003364:	fffff097          	auipc	ra,0xfffff
    80003368:	0d8080e7          	jalr	216(ra) # 8000243c <myproc>
    8000336c:	02048e63          	beqz	s1,800033a8 <either_copyin+0x74>
    80003370:	000a0693          	mv	a3,s4
    80003374:	00098613          	mv	a2,s3
    80003378:	00090593          	mv	a1,s2
    8000337c:	05053503          	ld	a0,80(a0)
    80003380:	fffff097          	auipc	ra,0xfffff
    80003384:	cac080e7          	jalr	-852(ra) # 8000202c <copyin>
    80003388:	02813083          	ld	ra,40(sp)
    8000338c:	02013403          	ld	s0,32(sp)
    80003390:	01813483          	ld	s1,24(sp)
    80003394:	01013903          	ld	s2,16(sp)
    80003398:	00813983          	ld	s3,8(sp)
    8000339c:	00013a03          	ld	s4,0(sp)
    800033a0:	03010113          	addi	sp,sp,48
    800033a4:	00008067          	ret
    800033a8:	000a061b          	sext.w	a2,s4
    800033ac:	00098593          	mv	a1,s3
    800033b0:	00090513          	mv	a0,s2
    800033b4:	ffffe097          	auipc	ra,0xffffe
    800033b8:	e04080e7          	jalr	-508(ra) # 800011b8 <memmove>
    800033bc:	00048513          	mv	a0,s1
    800033c0:	fc9ff06f          	j	80003388 <either_copyin+0x54>

00000000800033c4 <procdump>:
    800033c4:	fb010113          	addi	sp,sp,-80
    800033c8:	04113423          	sd	ra,72(sp)
    800033cc:	04813023          	sd	s0,64(sp)
    800033d0:	02913c23          	sd	s1,56(sp)
    800033d4:	03213823          	sd	s2,48(sp)
    800033d8:	03313423          	sd	s3,40(sp)
    800033dc:	03413023          	sd	s4,32(sp)
    800033e0:	01513c23          	sd	s5,24(sp)
    800033e4:	01613823          	sd	s6,16(sp)
    800033e8:	01713423          	sd	s7,8(sp)
    800033ec:	05010413          	addi	s0,sp,80
    800033f0:	00007517          	auipc	a0,0x7
    800033f4:	cd850513          	addi	a0,a0,-808 # 8000a0c8 <digits+0x88>
    800033f8:	ffffd097          	auipc	ra,0xffffd
    800033fc:	334080e7          	jalr	820(ra) # 8000072c <printf>
    80003400:	00010497          	auipc	s1,0x10
    80003404:	42848493          	addi	s1,s1,1064 # 80013828 <proc+0x158>
    80003408:	00016917          	auipc	s2,0x16
    8000340c:	e2090913          	addi	s2,s2,-480 # 80019228 <bcache+0x140>
    80003410:	00500b13          	li	s6,5
    80003414:	00007997          	auipc	s3,0x7
    80003418:	e6c98993          	addi	s3,s3,-404 # 8000a280 <digits+0x240>
    8000341c:	00007a97          	auipc	s5,0x7
    80003420:	e6ca8a93          	addi	s5,s5,-404 # 8000a288 <digits+0x248>
    80003424:	00007a17          	auipc	s4,0x7
    80003428:	ca4a0a13          	addi	s4,s4,-860 # 8000a0c8 <digits+0x88>
    8000342c:	00007b97          	auipc	s7,0x7
    80003430:	e94b8b93          	addi	s7,s7,-364 # 8000a2c0 <states.0>
    80003434:	0280006f          	j	8000345c <procdump+0x98>
    80003438:	ed86a583          	lw	a1,-296(a3)
    8000343c:	000a8513          	mv	a0,s5
    80003440:	ffffd097          	auipc	ra,0xffffd
    80003444:	2ec080e7          	jalr	748(ra) # 8000072c <printf>
    80003448:	000a0513          	mv	a0,s4
    8000344c:	ffffd097          	auipc	ra,0xffffd
    80003450:	2e0080e7          	jalr	736(ra) # 8000072c <printf>
    80003454:	16848493          	addi	s1,s1,360
    80003458:	03248a63          	beq	s1,s2,8000348c <procdump+0xc8>
    8000345c:	00048693          	mv	a3,s1
    80003460:	ec04a783          	lw	a5,-320(s1)
    80003464:	fe0788e3          	beqz	a5,80003454 <procdump+0x90>
    80003468:	00098613          	mv	a2,s3
    8000346c:	fcfb66e3          	bltu	s6,a5,80003438 <procdump+0x74>
    80003470:	02079713          	slli	a4,a5,0x20
    80003474:	01d75793          	srli	a5,a4,0x1d
    80003478:	00fb87b3          	add	a5,s7,a5
    8000347c:	0007b603          	ld	a2,0(a5)
    80003480:	fa061ce3          	bnez	a2,80003438 <procdump+0x74>
    80003484:	00098613          	mv	a2,s3
    80003488:	fb1ff06f          	j	80003438 <procdump+0x74>
    8000348c:	04813083          	ld	ra,72(sp)
    80003490:	04013403          	ld	s0,64(sp)
    80003494:	03813483          	ld	s1,56(sp)
    80003498:	03013903          	ld	s2,48(sp)
    8000349c:	02813983          	ld	s3,40(sp)
    800034a0:	02013a03          	ld	s4,32(sp)
    800034a4:	01813a83          	ld	s5,24(sp)
    800034a8:	01013b03          	ld	s6,16(sp)
    800034ac:	00813b83          	ld	s7,8(sp)
    800034b0:	05010113          	addi	sp,sp,80
    800034b4:	00008067          	ret

00000000800034b8 <swtch>:
    800034b8:	00153023          	sd	ra,0(a0)
    800034bc:	00253423          	sd	sp,8(a0)
    800034c0:	00853823          	sd	s0,16(a0)
    800034c4:	00953c23          	sd	s1,24(a0)
    800034c8:	03253023          	sd	s2,32(a0)
    800034cc:	03353423          	sd	s3,40(a0)
    800034d0:	03453823          	sd	s4,48(a0)
    800034d4:	03553c23          	sd	s5,56(a0)
    800034d8:	05653023          	sd	s6,64(a0)
    800034dc:	05753423          	sd	s7,72(a0)
    800034e0:	05853823          	sd	s8,80(a0)
    800034e4:	05953c23          	sd	s9,88(a0)
    800034e8:	07a53023          	sd	s10,96(a0)
    800034ec:	07b53423          	sd	s11,104(a0)
    800034f0:	0005b083          	ld	ra,0(a1)
    800034f4:	0085b103          	ld	sp,8(a1)
    800034f8:	0105b403          	ld	s0,16(a1)
    800034fc:	0185b483          	ld	s1,24(a1)
    80003500:	0205b903          	ld	s2,32(a1)
    80003504:	0285b983          	ld	s3,40(a1)
    80003508:	0305ba03          	ld	s4,48(a1)
    8000350c:	0385ba83          	ld	s5,56(a1)
    80003510:	0405bb03          	ld	s6,64(a1)
    80003514:	0485bb83          	ld	s7,72(a1)
    80003518:	0505bc03          	ld	s8,80(a1)
    8000351c:	0585bc83          	ld	s9,88(a1)
    80003520:	0605bd03          	ld	s10,96(a1)
    80003524:	0685bd83          	ld	s11,104(a1)
    80003528:	00008067          	ret

000000008000352c <trapinit>:
    8000352c:	ff010113          	addi	sp,sp,-16
    80003530:	00113423          	sd	ra,8(sp)
    80003534:	00813023          	sd	s0,0(sp)
    80003538:	01010413          	addi	s0,sp,16
    8000353c:	00007597          	auipc	a1,0x7
    80003540:	db458593          	addi	a1,a1,-588 # 8000a2f0 <states.0+0x30>
    80003544:	00016517          	auipc	a0,0x16
    80003548:	b8c50513          	addi	a0,a0,-1140 # 800190d0 <tickslock>
    8000354c:	ffffe097          	auipc	ra,0xffffe
    80003550:	99c080e7          	jalr	-1636(ra) # 80000ee8 <initlock>
    80003554:	00813083          	ld	ra,8(sp)
    80003558:	00013403          	ld	s0,0(sp)
    8000355c:	01010113          	addi	sp,sp,16
    80003560:	00008067          	ret

0000000080003564 <trapinithart>:
    80003564:	ff010113          	addi	sp,sp,-16
    80003568:	00813423          	sd	s0,8(sp)
    8000356c:	01010413          	addi	s0,sp,16
    80003570:	00004797          	auipc	a5,0x4
    80003574:	7d078793          	addi	a5,a5,2000 # 80007d40 <kernelvec>
    80003578:	10579073          	csrw	stvec,a5
    8000357c:	00813403          	ld	s0,8(sp)
    80003580:	01010113          	addi	sp,sp,16
    80003584:	00008067          	ret

0000000080003588 <usertrapret>:
    80003588:	ff010113          	addi	sp,sp,-16
    8000358c:	00113423          	sd	ra,8(sp)
    80003590:	00813023          	sd	s0,0(sp)
    80003594:	01010413          	addi	s0,sp,16
    80003598:	fffff097          	auipc	ra,0xfffff
    8000359c:	ea4080e7          	jalr	-348(ra) # 8000243c <myproc>
    800035a0:	100027f3          	csrr	a5,sstatus
    800035a4:	ffd7f793          	andi	a5,a5,-3
    800035a8:	10079073          	csrw	sstatus,a5
    800035ac:	00006697          	auipc	a3,0x6
    800035b0:	a5468693          	addi	a3,a3,-1452 # 80009000 <_trampoline>
    800035b4:	00006717          	auipc	a4,0x6
    800035b8:	a4c70713          	addi	a4,a4,-1460 # 80009000 <_trampoline>
    800035bc:	40d70733          	sub	a4,a4,a3
    800035c0:	040007b7          	lui	a5,0x4000
    800035c4:	fff78793          	addi	a5,a5,-1 # 3ffffff <_entry-0x7c000001>
    800035c8:	00c79793          	slli	a5,a5,0xc
    800035cc:	00f70733          	add	a4,a4,a5
    800035d0:	10571073          	csrw	stvec,a4
    800035d4:	05853703          	ld	a4,88(a0)
    800035d8:	18002673          	csrr	a2,satp
    800035dc:	00c73023          	sd	a2,0(a4)
    800035e0:	05853603          	ld	a2,88(a0)
    800035e4:	04053703          	ld	a4,64(a0)
    800035e8:	000015b7          	lui	a1,0x1
    800035ec:	00b70733          	add	a4,a4,a1
    800035f0:	00e63423          	sd	a4,8(a2) # 1008 <_entry-0x7fffeff8>
    800035f4:	05853703          	ld	a4,88(a0)
    800035f8:	00000617          	auipc	a2,0x0
    800035fc:	1bc60613          	addi	a2,a2,444 # 800037b4 <usertrap>
    80003600:	00c73823          	sd	a2,16(a4)
    80003604:	05853703          	ld	a4,88(a0)
    80003608:	00020613          	mv	a2,tp
    8000360c:	02c73023          	sd	a2,32(a4)
    80003610:	10002773          	csrr	a4,sstatus
    80003614:	eff77713          	andi	a4,a4,-257
    80003618:	02076713          	ori	a4,a4,32
    8000361c:	10071073          	csrw	sstatus,a4
    80003620:	05853703          	ld	a4,88(a0)
    80003624:	01873703          	ld	a4,24(a4)
    80003628:	14171073          	csrw	sepc,a4
    8000362c:	05053583          	ld	a1,80(a0)
    80003630:	00c5d593          	srli	a1,a1,0xc
    80003634:	00006717          	auipc	a4,0x6
    80003638:	a6c70713          	addi	a4,a4,-1428 # 800090a0 <userret>
    8000363c:	40d70733          	sub	a4,a4,a3
    80003640:	00f707b3          	add	a5,a4,a5
    80003644:	fff00713          	li	a4,-1
    80003648:	03f71713          	slli	a4,a4,0x3f
    8000364c:	00e5e5b3          	or	a1,a1,a4
    80003650:	02000537          	lui	a0,0x2000
    80003654:	fff50513          	addi	a0,a0,-1 # 1ffffff <_entry-0x7e000001>
    80003658:	00d51513          	slli	a0,a0,0xd
    8000365c:	000780e7          	jalr	a5
    80003660:	00813083          	ld	ra,8(sp)
    80003664:	00013403          	ld	s0,0(sp)
    80003668:	01010113          	addi	sp,sp,16
    8000366c:	00008067          	ret

0000000080003670 <clockintr>:
    80003670:	fe010113          	addi	sp,sp,-32
    80003674:	00113c23          	sd	ra,24(sp)
    80003678:	00813823          	sd	s0,16(sp)
    8000367c:	00913423          	sd	s1,8(sp)
    80003680:	02010413          	addi	s0,sp,32
    80003684:	00016497          	auipc	s1,0x16
    80003688:	a4c48493          	addi	s1,s1,-1460 # 800190d0 <tickslock>
    8000368c:	00048513          	mv	a0,s1
    80003690:	ffffe097          	auipc	ra,0xffffe
    80003694:	93c080e7          	jalr	-1732(ra) # 80000fcc <acquire>
    80003698:	00008517          	auipc	a0,0x8
    8000369c:	99850513          	addi	a0,a0,-1640 # 8000b030 <ticks>
    800036a0:	00052783          	lw	a5,0(a0)
    800036a4:	0017879b          	addiw	a5,a5,1
    800036a8:	00f52023          	sw	a5,0(a0)
    800036ac:	00000097          	auipc	ra,0x0
    800036b0:	920080e7          	jalr	-1760(ra) # 80002fcc <wakeup>
    800036b4:	00048513          	mv	a0,s1
    800036b8:	ffffe097          	auipc	ra,0xffffe
    800036bc:	a0c080e7          	jalr	-1524(ra) # 800010c4 <release>
    800036c0:	01813083          	ld	ra,24(sp)
    800036c4:	01013403          	ld	s0,16(sp)
    800036c8:	00813483          	ld	s1,8(sp)
    800036cc:	02010113          	addi	sp,sp,32
    800036d0:	00008067          	ret

00000000800036d4 <devintr>:
    800036d4:	fe010113          	addi	sp,sp,-32
    800036d8:	00113c23          	sd	ra,24(sp)
    800036dc:	00813823          	sd	s0,16(sp)
    800036e0:	00913423          	sd	s1,8(sp)
    800036e4:	02010413          	addi	s0,sp,32
    800036e8:	14202773          	csrr	a4,scause
    800036ec:	02074663          	bltz	a4,80003718 <devintr+0x44>
    800036f0:	fff00793          	li	a5,-1
    800036f4:	03f79793          	slli	a5,a5,0x3f
    800036f8:	00178793          	addi	a5,a5,1
    800036fc:	00000513          	li	a0,0
    80003700:	08f70463          	beq	a4,a5,80003788 <devintr+0xb4>
    80003704:	01813083          	ld	ra,24(sp)
    80003708:	01013403          	ld	s0,16(sp)
    8000370c:	00813483          	ld	s1,8(sp)
    80003710:	02010113          	addi	sp,sp,32
    80003714:	00008067          	ret
    80003718:	0ff77793          	zext.b	a5,a4
    8000371c:	00900693          	li	a3,9
    80003720:	fcd798e3          	bne	a5,a3,800036f0 <devintr+0x1c>
    80003724:	00004097          	auipc	ra,0x4
    80003728:	7e0080e7          	jalr	2016(ra) # 80007f04 <plic_claim>
    8000372c:	00050493          	mv	s1,a0
    80003730:	00a00793          	li	a5,10
    80003734:	02f50e63          	beq	a0,a5,80003770 <devintr+0x9c>
    80003738:	00100793          	li	a5,1
    8000373c:	04f50063          	beq	a0,a5,8000377c <devintr+0xa8>
    80003740:	00100513          	li	a0,1
    80003744:	fc0480e3          	beqz	s1,80003704 <devintr+0x30>
    80003748:	00048593          	mv	a1,s1
    8000374c:	00007517          	auipc	a0,0x7
    80003750:	bac50513          	addi	a0,a0,-1108 # 8000a2f8 <states.0+0x38>
    80003754:	ffffd097          	auipc	ra,0xffffd
    80003758:	fd8080e7          	jalr	-40(ra) # 8000072c <printf>
    8000375c:	00048513          	mv	a0,s1
    80003760:	00004097          	auipc	ra,0x4
    80003764:	7dc080e7          	jalr	2012(ra) # 80007f3c <plic_complete>
    80003768:	00100513          	li	a0,1
    8000376c:	f99ff06f          	j	80003704 <devintr+0x30>
    80003770:	ffffd097          	auipc	ra,0xffffd
    80003774:	518080e7          	jalr	1304(ra) # 80000c88 <uartintr>
    80003778:	fe5ff06f          	j	8000375c <devintr+0x88>
    8000377c:	00005097          	auipc	ra,0x5
    80003780:	de0080e7          	jalr	-544(ra) # 8000855c <virtio_disk_intr>
    80003784:	fd9ff06f          	j	8000375c <devintr+0x88>
    80003788:	fffff097          	auipc	ra,0xfffff
    8000378c:	c64080e7          	jalr	-924(ra) # 800023ec <cpuid>
    80003790:	00050c63          	beqz	a0,800037a8 <devintr+0xd4>
    80003794:	144027f3          	csrr	a5,sip
    80003798:	ffd7f793          	andi	a5,a5,-3
    8000379c:	14479073          	csrw	sip,a5
    800037a0:	00200513          	li	a0,2
    800037a4:	f61ff06f          	j	80003704 <devintr+0x30>
    800037a8:	00000097          	auipc	ra,0x0
    800037ac:	ec8080e7          	jalr	-312(ra) # 80003670 <clockintr>
    800037b0:	fe5ff06f          	j	80003794 <devintr+0xc0>

00000000800037b4 <usertrap>:
    800037b4:	fe010113          	addi	sp,sp,-32
    800037b8:	00113c23          	sd	ra,24(sp)
    800037bc:	00813823          	sd	s0,16(sp)
    800037c0:	00913423          	sd	s1,8(sp)
    800037c4:	01213023          	sd	s2,0(sp)
    800037c8:	02010413          	addi	s0,sp,32
    800037cc:	100027f3          	csrr	a5,sstatus
    800037d0:	1007f793          	andi	a5,a5,256
    800037d4:	08079463          	bnez	a5,8000385c <usertrap+0xa8>
    800037d8:	00004797          	auipc	a5,0x4
    800037dc:	56878793          	addi	a5,a5,1384 # 80007d40 <kernelvec>
    800037e0:	10579073          	csrw	stvec,a5
    800037e4:	fffff097          	auipc	ra,0xfffff
    800037e8:	c58080e7          	jalr	-936(ra) # 8000243c <myproc>
    800037ec:	00050493          	mv	s1,a0
    800037f0:	05853783          	ld	a5,88(a0)
    800037f4:	14102773          	csrr	a4,sepc
    800037f8:	00e7bc23          	sd	a4,24(a5)
    800037fc:	14202773          	csrr	a4,scause
    80003800:	00800793          	li	a5,8
    80003804:	06f71c63          	bne	a4,a5,8000387c <usertrap+0xc8>
    80003808:	02852783          	lw	a5,40(a0)
    8000380c:	06079063          	bnez	a5,8000386c <usertrap+0xb8>
    80003810:	0584b703          	ld	a4,88(s1)
    80003814:	01873783          	ld	a5,24(a4)
    80003818:	00478793          	addi	a5,a5,4
    8000381c:	00f73c23          	sd	a5,24(a4)
    80003820:	100027f3          	csrr	a5,sstatus
    80003824:	0027e793          	ori	a5,a5,2
    80003828:	10079073          	csrw	sstatus,a5
    8000382c:	00000097          	auipc	ra,0x0
    80003830:	430080e7          	jalr	1072(ra) # 80003c5c <syscall>
    80003834:	0284a783          	lw	a5,40(s1)
    80003838:	0a079c63          	bnez	a5,800038f0 <usertrap+0x13c>
    8000383c:	00000097          	auipc	ra,0x0
    80003840:	d4c080e7          	jalr	-692(ra) # 80003588 <usertrapret>
    80003844:	01813083          	ld	ra,24(sp)
    80003848:	01013403          	ld	s0,16(sp)
    8000384c:	00813483          	ld	s1,8(sp)
    80003850:	00013903          	ld	s2,0(sp)
    80003854:	02010113          	addi	sp,sp,32
    80003858:	00008067          	ret
    8000385c:	00007517          	auipc	a0,0x7
    80003860:	abc50513          	addi	a0,a0,-1348 # 8000a318 <states.0+0x58>
    80003864:	ffffd097          	auipc	ra,0xffffd
    80003868:	e6c080e7          	jalr	-404(ra) # 800006d0 <panic>
    8000386c:	fff00513          	li	a0,-1
    80003870:	00000097          	auipc	ra,0x0
    80003874:	88c080e7          	jalr	-1908(ra) # 800030fc <exit>
    80003878:	f99ff06f          	j	80003810 <usertrap+0x5c>
    8000387c:	00000097          	auipc	ra,0x0
    80003880:	e58080e7          	jalr	-424(ra) # 800036d4 <devintr>
    80003884:	00050913          	mv	s2,a0
    80003888:	00050863          	beqz	a0,80003898 <usertrap+0xe4>
    8000388c:	0284a783          	lw	a5,40(s1)
    80003890:	04078663          	beqz	a5,800038dc <usertrap+0x128>
    80003894:	03c0006f          	j	800038d0 <usertrap+0x11c>
    80003898:	142025f3          	csrr	a1,scause
    8000389c:	0304a603          	lw	a2,48(s1)
    800038a0:	00007517          	auipc	a0,0x7
    800038a4:	a9850513          	addi	a0,a0,-1384 # 8000a338 <states.0+0x78>
    800038a8:	ffffd097          	auipc	ra,0xffffd
    800038ac:	e84080e7          	jalr	-380(ra) # 8000072c <printf>
    800038b0:	141025f3          	csrr	a1,sepc
    800038b4:	14302673          	csrr	a2,stval
    800038b8:	00007517          	auipc	a0,0x7
    800038bc:	ab050513          	addi	a0,a0,-1360 # 8000a368 <states.0+0xa8>
    800038c0:	ffffd097          	auipc	ra,0xffffd
    800038c4:	e6c080e7          	jalr	-404(ra) # 8000072c <printf>
    800038c8:	00100793          	li	a5,1
    800038cc:	02f4a423          	sw	a5,40(s1)
    800038d0:	fff00513          	li	a0,-1
    800038d4:	00000097          	auipc	ra,0x0
    800038d8:	828080e7          	jalr	-2008(ra) # 800030fc <exit>
    800038dc:	00200793          	li	a5,2
    800038e0:	f4f91ee3          	bne	s2,a5,8000383c <usertrap+0x88>
    800038e4:	fffff097          	auipc	ra,0xfffff
    800038e8:	470080e7          	jalr	1136(ra) # 80002d54 <yield>
    800038ec:	f51ff06f          	j	8000383c <usertrap+0x88>
    800038f0:	00000913          	li	s2,0
    800038f4:	fddff06f          	j	800038d0 <usertrap+0x11c>

00000000800038f8 <kerneltrap>:
    800038f8:	fd010113          	addi	sp,sp,-48
    800038fc:	02113423          	sd	ra,40(sp)
    80003900:	02813023          	sd	s0,32(sp)
    80003904:	00913c23          	sd	s1,24(sp)
    80003908:	01213823          	sd	s2,16(sp)
    8000390c:	01313423          	sd	s3,8(sp)
    80003910:	03010413          	addi	s0,sp,48
    80003914:	14102973          	csrr	s2,sepc
    80003918:	100024f3          	csrr	s1,sstatus
    8000391c:	142029f3          	csrr	s3,scause
    80003920:	1004f793          	andi	a5,s1,256
    80003924:	04078463          	beqz	a5,8000396c <kerneltrap+0x74>
    80003928:	100027f3          	csrr	a5,sstatus
    8000392c:	0027f793          	andi	a5,a5,2
    80003930:	04079663          	bnez	a5,8000397c <kerneltrap+0x84>
    80003934:	00000097          	auipc	ra,0x0
    80003938:	da0080e7          	jalr	-608(ra) # 800036d4 <devintr>
    8000393c:	04050863          	beqz	a0,8000398c <kerneltrap+0x94>
    80003940:	00200793          	li	a5,2
    80003944:	08f50263          	beq	a0,a5,800039c8 <kerneltrap+0xd0>
    80003948:	14191073          	csrw	sepc,s2
    8000394c:	10049073          	csrw	sstatus,s1
    80003950:	02813083          	ld	ra,40(sp)
    80003954:	02013403          	ld	s0,32(sp)
    80003958:	01813483          	ld	s1,24(sp)
    8000395c:	01013903          	ld	s2,16(sp)
    80003960:	00813983          	ld	s3,8(sp)
    80003964:	03010113          	addi	sp,sp,48
    80003968:	00008067          	ret
    8000396c:	00007517          	auipc	a0,0x7
    80003970:	a1c50513          	addi	a0,a0,-1508 # 8000a388 <states.0+0xc8>
    80003974:	ffffd097          	auipc	ra,0xffffd
    80003978:	d5c080e7          	jalr	-676(ra) # 800006d0 <panic>
    8000397c:	00007517          	auipc	a0,0x7
    80003980:	a3450513          	addi	a0,a0,-1484 # 8000a3b0 <states.0+0xf0>
    80003984:	ffffd097          	auipc	ra,0xffffd
    80003988:	d4c080e7          	jalr	-692(ra) # 800006d0 <panic>
    8000398c:	00098593          	mv	a1,s3
    80003990:	00007517          	auipc	a0,0x7
    80003994:	a4050513          	addi	a0,a0,-1472 # 8000a3d0 <states.0+0x110>
    80003998:	ffffd097          	auipc	ra,0xffffd
    8000399c:	d94080e7          	jalr	-620(ra) # 8000072c <printf>
    800039a0:	141025f3          	csrr	a1,sepc
    800039a4:	14302673          	csrr	a2,stval
    800039a8:	00007517          	auipc	a0,0x7
    800039ac:	a3850513          	addi	a0,a0,-1480 # 8000a3e0 <states.0+0x120>
    800039b0:	ffffd097          	auipc	ra,0xffffd
    800039b4:	d7c080e7          	jalr	-644(ra) # 8000072c <printf>
    800039b8:	00007517          	auipc	a0,0x7
    800039bc:	a4050513          	addi	a0,a0,-1472 # 8000a3f8 <states.0+0x138>
    800039c0:	ffffd097          	auipc	ra,0xffffd
    800039c4:	d10080e7          	jalr	-752(ra) # 800006d0 <panic>
    800039c8:	fffff097          	auipc	ra,0xfffff
    800039cc:	a74080e7          	jalr	-1420(ra) # 8000243c <myproc>
    800039d0:	f6050ce3          	beqz	a0,80003948 <kerneltrap+0x50>
    800039d4:	fffff097          	auipc	ra,0xfffff
    800039d8:	a68080e7          	jalr	-1432(ra) # 8000243c <myproc>
    800039dc:	01852703          	lw	a4,24(a0)
    800039e0:	00400793          	li	a5,4
    800039e4:	f6f712e3          	bne	a4,a5,80003948 <kerneltrap+0x50>
    800039e8:	fffff097          	auipc	ra,0xfffff
    800039ec:	36c080e7          	jalr	876(ra) # 80002d54 <yield>
    800039f0:	f59ff06f          	j	80003948 <kerneltrap+0x50>

00000000800039f4 <argraw>:
    800039f4:	fe010113          	addi	sp,sp,-32
    800039f8:	00113c23          	sd	ra,24(sp)
    800039fc:	00813823          	sd	s0,16(sp)
    80003a00:	00913423          	sd	s1,8(sp)
    80003a04:	02010413          	addi	s0,sp,32
    80003a08:	00050493          	mv	s1,a0
    80003a0c:	fffff097          	auipc	ra,0xfffff
    80003a10:	a30080e7          	jalr	-1488(ra) # 8000243c <myproc>
    80003a14:	00500793          	li	a5,5
    80003a18:	0697ec63          	bltu	a5,s1,80003a90 <argraw+0x9c>
    80003a1c:	00249493          	slli	s1,s1,0x2
    80003a20:	00007717          	auipc	a4,0x7
    80003a24:	a1070713          	addi	a4,a4,-1520 # 8000a430 <states.0+0x170>
    80003a28:	00e484b3          	add	s1,s1,a4
    80003a2c:	0004a783          	lw	a5,0(s1)
    80003a30:	00e787b3          	add	a5,a5,a4
    80003a34:	00078067          	jr	a5
    80003a38:	05853783          	ld	a5,88(a0)
    80003a3c:	0707b503          	ld	a0,112(a5)
    80003a40:	01813083          	ld	ra,24(sp)
    80003a44:	01013403          	ld	s0,16(sp)
    80003a48:	00813483          	ld	s1,8(sp)
    80003a4c:	02010113          	addi	sp,sp,32
    80003a50:	00008067          	ret
    80003a54:	05853783          	ld	a5,88(a0)
    80003a58:	0787b503          	ld	a0,120(a5)
    80003a5c:	fe5ff06f          	j	80003a40 <argraw+0x4c>
    80003a60:	05853783          	ld	a5,88(a0)
    80003a64:	0807b503          	ld	a0,128(a5)
    80003a68:	fd9ff06f          	j	80003a40 <argraw+0x4c>
    80003a6c:	05853783          	ld	a5,88(a0)
    80003a70:	0887b503          	ld	a0,136(a5)
    80003a74:	fcdff06f          	j	80003a40 <argraw+0x4c>
    80003a78:	05853783          	ld	a5,88(a0)
    80003a7c:	0907b503          	ld	a0,144(a5)
    80003a80:	fc1ff06f          	j	80003a40 <argraw+0x4c>
    80003a84:	05853783          	ld	a5,88(a0)
    80003a88:	0987b503          	ld	a0,152(a5)
    80003a8c:	fb5ff06f          	j	80003a40 <argraw+0x4c>
    80003a90:	00007517          	auipc	a0,0x7
    80003a94:	97850513          	addi	a0,a0,-1672 # 8000a408 <states.0+0x148>
    80003a98:	ffffd097          	auipc	ra,0xffffd
    80003a9c:	c38080e7          	jalr	-968(ra) # 800006d0 <panic>

0000000080003aa0 <fetchaddr>:
    80003aa0:	fe010113          	addi	sp,sp,-32
    80003aa4:	00113c23          	sd	ra,24(sp)
    80003aa8:	00813823          	sd	s0,16(sp)
    80003aac:	00913423          	sd	s1,8(sp)
    80003ab0:	01213023          	sd	s2,0(sp)
    80003ab4:	02010413          	addi	s0,sp,32
    80003ab8:	00050493          	mv	s1,a0
    80003abc:	00058913          	mv	s2,a1
    80003ac0:	fffff097          	auipc	ra,0xfffff
    80003ac4:	97c080e7          	jalr	-1668(ra) # 8000243c <myproc>
    80003ac8:	04853783          	ld	a5,72(a0)
    80003acc:	04f4f263          	bgeu	s1,a5,80003b10 <fetchaddr+0x70>
    80003ad0:	00848713          	addi	a4,s1,8
    80003ad4:	04e7e263          	bltu	a5,a4,80003b18 <fetchaddr+0x78>
    80003ad8:	00800693          	li	a3,8
    80003adc:	00048613          	mv	a2,s1
    80003ae0:	00090593          	mv	a1,s2
    80003ae4:	05053503          	ld	a0,80(a0)
    80003ae8:	ffffe097          	auipc	ra,0xffffe
    80003aec:	544080e7          	jalr	1348(ra) # 8000202c <copyin>
    80003af0:	00a03533          	snez	a0,a0
    80003af4:	40a00533          	neg	a0,a0
    80003af8:	01813083          	ld	ra,24(sp)
    80003afc:	01013403          	ld	s0,16(sp)
    80003b00:	00813483          	ld	s1,8(sp)
    80003b04:	00013903          	ld	s2,0(sp)
    80003b08:	02010113          	addi	sp,sp,32
    80003b0c:	00008067          	ret
    80003b10:	fff00513          	li	a0,-1
    80003b14:	fe5ff06f          	j	80003af8 <fetchaddr+0x58>
    80003b18:	fff00513          	li	a0,-1
    80003b1c:	fddff06f          	j	80003af8 <fetchaddr+0x58>

0000000080003b20 <fetchstr>:
    80003b20:	fd010113          	addi	sp,sp,-48
    80003b24:	02113423          	sd	ra,40(sp)
    80003b28:	02813023          	sd	s0,32(sp)
    80003b2c:	00913c23          	sd	s1,24(sp)
    80003b30:	01213823          	sd	s2,16(sp)
    80003b34:	01313423          	sd	s3,8(sp)
    80003b38:	03010413          	addi	s0,sp,48
    80003b3c:	00050913          	mv	s2,a0
    80003b40:	00058493          	mv	s1,a1
    80003b44:	00060993          	mv	s3,a2
    80003b48:	fffff097          	auipc	ra,0xfffff
    80003b4c:	8f4080e7          	jalr	-1804(ra) # 8000243c <myproc>
    80003b50:	00098693          	mv	a3,s3
    80003b54:	00090613          	mv	a2,s2
    80003b58:	00048593          	mv	a1,s1
    80003b5c:	05053503          	ld	a0,80(a0)
    80003b60:	ffffe097          	auipc	ra,0xffffe
    80003b64:	5b4080e7          	jalr	1460(ra) # 80002114 <copyinstr>
    80003b68:	00054863          	bltz	a0,80003b78 <fetchstr+0x58>
    80003b6c:	00048513          	mv	a0,s1
    80003b70:	ffffe097          	auipc	ra,0xffffe
    80003b74:	800080e7          	jalr	-2048(ra) # 80001370 <strlen>
    80003b78:	02813083          	ld	ra,40(sp)
    80003b7c:	02013403          	ld	s0,32(sp)
    80003b80:	01813483          	ld	s1,24(sp)
    80003b84:	01013903          	ld	s2,16(sp)
    80003b88:	00813983          	ld	s3,8(sp)
    80003b8c:	03010113          	addi	sp,sp,48
    80003b90:	00008067          	ret

0000000080003b94 <argint>:
    80003b94:	fe010113          	addi	sp,sp,-32
    80003b98:	00113c23          	sd	ra,24(sp)
    80003b9c:	00813823          	sd	s0,16(sp)
    80003ba0:	00913423          	sd	s1,8(sp)
    80003ba4:	02010413          	addi	s0,sp,32
    80003ba8:	00058493          	mv	s1,a1
    80003bac:	00000097          	auipc	ra,0x0
    80003bb0:	e48080e7          	jalr	-440(ra) # 800039f4 <argraw>
    80003bb4:	00a4a023          	sw	a0,0(s1)
    80003bb8:	00000513          	li	a0,0
    80003bbc:	01813083          	ld	ra,24(sp)
    80003bc0:	01013403          	ld	s0,16(sp)
    80003bc4:	00813483          	ld	s1,8(sp)
    80003bc8:	02010113          	addi	sp,sp,32
    80003bcc:	00008067          	ret

0000000080003bd0 <argaddr>:
    80003bd0:	fe010113          	addi	sp,sp,-32
    80003bd4:	00113c23          	sd	ra,24(sp)
    80003bd8:	00813823          	sd	s0,16(sp)
    80003bdc:	00913423          	sd	s1,8(sp)
    80003be0:	02010413          	addi	s0,sp,32
    80003be4:	00058493          	mv	s1,a1
    80003be8:	00000097          	auipc	ra,0x0
    80003bec:	e0c080e7          	jalr	-500(ra) # 800039f4 <argraw>
    80003bf0:	00a4b023          	sd	a0,0(s1)
    80003bf4:	00000513          	li	a0,0
    80003bf8:	01813083          	ld	ra,24(sp)
    80003bfc:	01013403          	ld	s0,16(sp)
    80003c00:	00813483          	ld	s1,8(sp)
    80003c04:	02010113          	addi	sp,sp,32
    80003c08:	00008067          	ret

0000000080003c0c <argstr>:
    80003c0c:	fe010113          	addi	sp,sp,-32
    80003c10:	00113c23          	sd	ra,24(sp)
    80003c14:	00813823          	sd	s0,16(sp)
    80003c18:	00913423          	sd	s1,8(sp)
    80003c1c:	01213023          	sd	s2,0(sp)
    80003c20:	02010413          	addi	s0,sp,32
    80003c24:	00058493          	mv	s1,a1
    80003c28:	00060913          	mv	s2,a2
    80003c2c:	00000097          	auipc	ra,0x0
    80003c30:	dc8080e7          	jalr	-568(ra) # 800039f4 <argraw>
    80003c34:	00090613          	mv	a2,s2
    80003c38:	00048593          	mv	a1,s1
    80003c3c:	00000097          	auipc	ra,0x0
    80003c40:	ee4080e7          	jalr	-284(ra) # 80003b20 <fetchstr>
    80003c44:	01813083          	ld	ra,24(sp)
    80003c48:	01013403          	ld	s0,16(sp)
    80003c4c:	00813483          	ld	s1,8(sp)
    80003c50:	00013903          	ld	s2,0(sp)
    80003c54:	02010113          	addi	sp,sp,32
    80003c58:	00008067          	ret

0000000080003c5c <syscall>:
    80003c5c:	fe010113          	addi	sp,sp,-32
    80003c60:	00113c23          	sd	ra,24(sp)
    80003c64:	00813823          	sd	s0,16(sp)
    80003c68:	00913423          	sd	s1,8(sp)
    80003c6c:	01213023          	sd	s2,0(sp)
    80003c70:	02010413          	addi	s0,sp,32
    80003c74:	ffffe097          	auipc	ra,0xffffe
    80003c78:	7c8080e7          	jalr	1992(ra) # 8000243c <myproc>
    80003c7c:	00050493          	mv	s1,a0
    80003c80:	05853903          	ld	s2,88(a0)
    80003c84:	0a893783          	ld	a5,168(s2)
    80003c88:	0007869b          	sext.w	a3,a5
    80003c8c:	fff7879b          	addiw	a5,a5,-1
    80003c90:	01400713          	li	a4,20
    80003c94:	02f76463          	bltu	a4,a5,80003cbc <syscall+0x60>
    80003c98:	00369713          	slli	a4,a3,0x3
    80003c9c:	00006797          	auipc	a5,0x6
    80003ca0:	7ac78793          	addi	a5,a5,1964 # 8000a448 <syscalls>
    80003ca4:	00e787b3          	add	a5,a5,a4
    80003ca8:	0007b783          	ld	a5,0(a5)
    80003cac:	00078863          	beqz	a5,80003cbc <syscall+0x60>
    80003cb0:	000780e7          	jalr	a5
    80003cb4:	06a93823          	sd	a0,112(s2)
    80003cb8:	0280006f          	j	80003ce0 <syscall+0x84>
    80003cbc:	15848613          	addi	a2,s1,344
    80003cc0:	0304a583          	lw	a1,48(s1)
    80003cc4:	00006517          	auipc	a0,0x6
    80003cc8:	74c50513          	addi	a0,a0,1868 # 8000a410 <states.0+0x150>
    80003ccc:	ffffd097          	auipc	ra,0xffffd
    80003cd0:	a60080e7          	jalr	-1440(ra) # 8000072c <printf>
    80003cd4:	0584b783          	ld	a5,88(s1)
    80003cd8:	fff00713          	li	a4,-1
    80003cdc:	06e7b823          	sd	a4,112(a5)
    80003ce0:	01813083          	ld	ra,24(sp)
    80003ce4:	01013403          	ld	s0,16(sp)
    80003ce8:	00813483          	ld	s1,8(sp)
    80003cec:	00013903          	ld	s2,0(sp)
    80003cf0:	02010113          	addi	sp,sp,32
    80003cf4:	00008067          	ret

0000000080003cf8 <sys_exit>:
    80003cf8:	fe010113          	addi	sp,sp,-32
    80003cfc:	00113c23          	sd	ra,24(sp)
    80003d00:	00813823          	sd	s0,16(sp)
    80003d04:	02010413          	addi	s0,sp,32
    80003d08:	fec40593          	addi	a1,s0,-20
    80003d0c:	00000513          	li	a0,0
    80003d10:	00000097          	auipc	ra,0x0
    80003d14:	e84080e7          	jalr	-380(ra) # 80003b94 <argint>
    80003d18:	fff00793          	li	a5,-1
    80003d1c:	00054a63          	bltz	a0,80003d30 <sys_exit+0x38>
    80003d20:	fec42503          	lw	a0,-20(s0)
    80003d24:	fffff097          	auipc	ra,0xfffff
    80003d28:	3d8080e7          	jalr	984(ra) # 800030fc <exit>
    80003d2c:	00000793          	li	a5,0
    80003d30:	00078513          	mv	a0,a5
    80003d34:	01813083          	ld	ra,24(sp)
    80003d38:	01013403          	ld	s0,16(sp)
    80003d3c:	02010113          	addi	sp,sp,32
    80003d40:	00008067          	ret

0000000080003d44 <sys_getpid>:
    80003d44:	ff010113          	addi	sp,sp,-16
    80003d48:	00113423          	sd	ra,8(sp)
    80003d4c:	00813023          	sd	s0,0(sp)
    80003d50:	01010413          	addi	s0,sp,16
    80003d54:	ffffe097          	auipc	ra,0xffffe
    80003d58:	6e8080e7          	jalr	1768(ra) # 8000243c <myproc>
    80003d5c:	03052503          	lw	a0,48(a0)
    80003d60:	00813083          	ld	ra,8(sp)
    80003d64:	00013403          	ld	s0,0(sp)
    80003d68:	01010113          	addi	sp,sp,16
    80003d6c:	00008067          	ret

0000000080003d70 <sys_fork>:
    80003d70:	ff010113          	addi	sp,sp,-16
    80003d74:	00113423          	sd	ra,8(sp)
    80003d78:	00813023          	sd	s0,0(sp)
    80003d7c:	01010413          	addi	s0,sp,16
    80003d80:	fffff097          	auipc	ra,0xfffff
    80003d84:	c44080e7          	jalr	-956(ra) # 800029c4 <fork>
    80003d88:	00813083          	ld	ra,8(sp)
    80003d8c:	00013403          	ld	s0,0(sp)
    80003d90:	01010113          	addi	sp,sp,16
    80003d94:	00008067          	ret

0000000080003d98 <sys_wait>:
    80003d98:	fe010113          	addi	sp,sp,-32
    80003d9c:	00113c23          	sd	ra,24(sp)
    80003da0:	00813823          	sd	s0,16(sp)
    80003da4:	02010413          	addi	s0,sp,32
    80003da8:	fe840593          	addi	a1,s0,-24
    80003dac:	00000513          	li	a0,0
    80003db0:	00000097          	auipc	ra,0x0
    80003db4:	e20080e7          	jalr	-480(ra) # 80003bd0 <argaddr>
    80003db8:	00050793          	mv	a5,a0
    80003dbc:	fff00513          	li	a0,-1
    80003dc0:	0007c863          	bltz	a5,80003dd0 <sys_wait+0x38>
    80003dc4:	fe843503          	ld	a0,-24(s0)
    80003dc8:	fffff097          	auipc	ra,0xfffff
    80003dcc:	074080e7          	jalr	116(ra) # 80002e3c <wait>
    80003dd0:	01813083          	ld	ra,24(sp)
    80003dd4:	01013403          	ld	s0,16(sp)
    80003dd8:	02010113          	addi	sp,sp,32
    80003ddc:	00008067          	ret

0000000080003de0 <sys_sbrk>:
    80003de0:	fd010113          	addi	sp,sp,-48
    80003de4:	02113423          	sd	ra,40(sp)
    80003de8:	02813023          	sd	s0,32(sp)
    80003dec:	00913c23          	sd	s1,24(sp)
    80003df0:	03010413          	addi	s0,sp,48
    80003df4:	fdc40593          	addi	a1,s0,-36
    80003df8:	00000513          	li	a0,0
    80003dfc:	00000097          	auipc	ra,0x0
    80003e00:	d98080e7          	jalr	-616(ra) # 80003b94 <argint>
    80003e04:	00050793          	mv	a5,a0
    80003e08:	fff00513          	li	a0,-1
    80003e0c:	0207c263          	bltz	a5,80003e30 <sys_sbrk+0x50>
    80003e10:	ffffe097          	auipc	ra,0xffffe
    80003e14:	62c080e7          	jalr	1580(ra) # 8000243c <myproc>
    80003e18:	04852483          	lw	s1,72(a0)
    80003e1c:	fdc42503          	lw	a0,-36(s0)
    80003e20:	fffff097          	auipc	ra,0xfffff
    80003e24:	aec080e7          	jalr	-1300(ra) # 8000290c <growproc>
    80003e28:	00054e63          	bltz	a0,80003e44 <sys_sbrk+0x64>
    80003e2c:	00048513          	mv	a0,s1
    80003e30:	02813083          	ld	ra,40(sp)
    80003e34:	02013403          	ld	s0,32(sp)
    80003e38:	01813483          	ld	s1,24(sp)
    80003e3c:	03010113          	addi	sp,sp,48
    80003e40:	00008067          	ret
    80003e44:	fff00513          	li	a0,-1
    80003e48:	fe9ff06f          	j	80003e30 <sys_sbrk+0x50>

0000000080003e4c <sys_sleep>:
    80003e4c:	fc010113          	addi	sp,sp,-64
    80003e50:	02113c23          	sd	ra,56(sp)
    80003e54:	02813823          	sd	s0,48(sp)
    80003e58:	02913423          	sd	s1,40(sp)
    80003e5c:	03213023          	sd	s2,32(sp)
    80003e60:	01313c23          	sd	s3,24(sp)
    80003e64:	04010413          	addi	s0,sp,64
    80003e68:	fcc40593          	addi	a1,s0,-52
    80003e6c:	00000513          	li	a0,0
    80003e70:	00000097          	auipc	ra,0x0
    80003e74:	d24080e7          	jalr	-732(ra) # 80003b94 <argint>
    80003e78:	fff00793          	li	a5,-1
    80003e7c:	06054c63          	bltz	a0,80003ef4 <sys_sleep+0xa8>
    80003e80:	00015517          	auipc	a0,0x15
    80003e84:	25050513          	addi	a0,a0,592 # 800190d0 <tickslock>
    80003e88:	ffffd097          	auipc	ra,0xffffd
    80003e8c:	144080e7          	jalr	324(ra) # 80000fcc <acquire>
    80003e90:	00007917          	auipc	s2,0x7
    80003e94:	1a092903          	lw	s2,416(s2) # 8000b030 <ticks>
    80003e98:	fcc42783          	lw	a5,-52(s0)
    80003e9c:	04078263          	beqz	a5,80003ee0 <sys_sleep+0x94>
    80003ea0:	00015997          	auipc	s3,0x15
    80003ea4:	23098993          	addi	s3,s3,560 # 800190d0 <tickslock>
    80003ea8:	00007497          	auipc	s1,0x7
    80003eac:	18848493          	addi	s1,s1,392 # 8000b030 <ticks>
    80003eb0:	ffffe097          	auipc	ra,0xffffe
    80003eb4:	58c080e7          	jalr	1420(ra) # 8000243c <myproc>
    80003eb8:	02852783          	lw	a5,40(a0)
    80003ebc:	04079c63          	bnez	a5,80003f14 <sys_sleep+0xc8>
    80003ec0:	00098593          	mv	a1,s3
    80003ec4:	00048513          	mv	a0,s1
    80003ec8:	fffff097          	auipc	ra,0xfffff
    80003ecc:	ee4080e7          	jalr	-284(ra) # 80002dac <sleep>
    80003ed0:	0004a783          	lw	a5,0(s1)
    80003ed4:	412787bb          	subw	a5,a5,s2
    80003ed8:	fcc42703          	lw	a4,-52(s0)
    80003edc:	fce7eae3          	bltu	a5,a4,80003eb0 <sys_sleep+0x64>
    80003ee0:	00015517          	auipc	a0,0x15
    80003ee4:	1f050513          	addi	a0,a0,496 # 800190d0 <tickslock>
    80003ee8:	ffffd097          	auipc	ra,0xffffd
    80003eec:	1dc080e7          	jalr	476(ra) # 800010c4 <release>
    80003ef0:	00000793          	li	a5,0
    80003ef4:	00078513          	mv	a0,a5
    80003ef8:	03813083          	ld	ra,56(sp)
    80003efc:	03013403          	ld	s0,48(sp)
    80003f00:	02813483          	ld	s1,40(sp)
    80003f04:	02013903          	ld	s2,32(sp)
    80003f08:	01813983          	ld	s3,24(sp)
    80003f0c:	04010113          	addi	sp,sp,64
    80003f10:	00008067          	ret
    80003f14:	00015517          	auipc	a0,0x15
    80003f18:	1bc50513          	addi	a0,a0,444 # 800190d0 <tickslock>
    80003f1c:	ffffd097          	auipc	ra,0xffffd
    80003f20:	1a8080e7          	jalr	424(ra) # 800010c4 <release>
    80003f24:	fff00793          	li	a5,-1
    80003f28:	fcdff06f          	j	80003ef4 <sys_sleep+0xa8>

0000000080003f2c <sys_kill>:
    80003f2c:	fe010113          	addi	sp,sp,-32
    80003f30:	00113c23          	sd	ra,24(sp)
    80003f34:	00813823          	sd	s0,16(sp)
    80003f38:	02010413          	addi	s0,sp,32
    80003f3c:	fec40593          	addi	a1,s0,-20
    80003f40:	00000513          	li	a0,0
    80003f44:	00000097          	auipc	ra,0x0
    80003f48:	c50080e7          	jalr	-944(ra) # 80003b94 <argint>
    80003f4c:	00050793          	mv	a5,a0
    80003f50:	fff00513          	li	a0,-1
    80003f54:	0007c863          	bltz	a5,80003f64 <sys_kill+0x38>
    80003f58:	fec42503          	lw	a0,-20(s0)
    80003f5c:	fffff097          	auipc	ra,0xfffff
    80003f60:	29c080e7          	jalr	668(ra) # 800031f8 <kill>
    80003f64:	01813083          	ld	ra,24(sp)
    80003f68:	01013403          	ld	s0,16(sp)
    80003f6c:	02010113          	addi	sp,sp,32
    80003f70:	00008067          	ret

0000000080003f74 <sys_uptime>:
    80003f74:	fe010113          	addi	sp,sp,-32
    80003f78:	00113c23          	sd	ra,24(sp)
    80003f7c:	00813823          	sd	s0,16(sp)
    80003f80:	00913423          	sd	s1,8(sp)
    80003f84:	02010413          	addi	s0,sp,32
    80003f88:	00015517          	auipc	a0,0x15
    80003f8c:	14850513          	addi	a0,a0,328 # 800190d0 <tickslock>
    80003f90:	ffffd097          	auipc	ra,0xffffd
    80003f94:	03c080e7          	jalr	60(ra) # 80000fcc <acquire>
    80003f98:	00007497          	auipc	s1,0x7
    80003f9c:	0984a483          	lw	s1,152(s1) # 8000b030 <ticks>
    80003fa0:	00015517          	auipc	a0,0x15
    80003fa4:	13050513          	addi	a0,a0,304 # 800190d0 <tickslock>
    80003fa8:	ffffd097          	auipc	ra,0xffffd
    80003fac:	11c080e7          	jalr	284(ra) # 800010c4 <release>
    80003fb0:	02049513          	slli	a0,s1,0x20
    80003fb4:	02055513          	srli	a0,a0,0x20
    80003fb8:	01813083          	ld	ra,24(sp)
    80003fbc:	01013403          	ld	s0,16(sp)
    80003fc0:	00813483          	ld	s1,8(sp)
    80003fc4:	02010113          	addi	sp,sp,32
    80003fc8:	00008067          	ret

0000000080003fcc <binit>:
    80003fcc:	fd010113          	addi	sp,sp,-48
    80003fd0:	02113423          	sd	ra,40(sp)
    80003fd4:	02813023          	sd	s0,32(sp)
    80003fd8:	00913c23          	sd	s1,24(sp)
    80003fdc:	01213823          	sd	s2,16(sp)
    80003fe0:	01313423          	sd	s3,8(sp)
    80003fe4:	01413023          	sd	s4,0(sp)
    80003fe8:	03010413          	addi	s0,sp,48
    80003fec:	00006597          	auipc	a1,0x6
    80003ff0:	50c58593          	addi	a1,a1,1292 # 8000a4f8 <syscalls+0xb0>
    80003ff4:	00015517          	auipc	a0,0x15
    80003ff8:	0f450513          	addi	a0,a0,244 # 800190e8 <bcache>
    80003ffc:	ffffd097          	auipc	ra,0xffffd
    80004000:	eec080e7          	jalr	-276(ra) # 80000ee8 <initlock>
    80004004:	0001d797          	auipc	a5,0x1d
    80004008:	0e478793          	addi	a5,a5,228 # 800210e8 <bcache+0x8000>
    8000400c:	0001d717          	auipc	a4,0x1d
    80004010:	34470713          	addi	a4,a4,836 # 80021350 <bcache+0x8268>
    80004014:	2ae7b823          	sd	a4,688(a5)
    80004018:	2ae7bc23          	sd	a4,696(a5)
    8000401c:	00015497          	auipc	s1,0x15
    80004020:	0e448493          	addi	s1,s1,228 # 80019100 <bcache+0x18>
    80004024:	00078913          	mv	s2,a5
    80004028:	00070993          	mv	s3,a4
    8000402c:	00006a17          	auipc	s4,0x6
    80004030:	4d4a0a13          	addi	s4,s4,1236 # 8000a500 <syscalls+0xb8>
    80004034:	2b893783          	ld	a5,696(s2)
    80004038:	04f4b823          	sd	a5,80(s1)
    8000403c:	0534b423          	sd	s3,72(s1)
    80004040:	000a0593          	mv	a1,s4
    80004044:	01048513          	addi	a0,s1,16
    80004048:	00002097          	auipc	ra,0x2
    8000404c:	c98080e7          	jalr	-872(ra) # 80005ce0 <initsleeplock>
    80004050:	2b893783          	ld	a5,696(s2)
    80004054:	0497b423          	sd	s1,72(a5)
    80004058:	2a993c23          	sd	s1,696(s2)
    8000405c:	45848493          	addi	s1,s1,1112
    80004060:	fd349ae3          	bne	s1,s3,80004034 <binit+0x68>
    80004064:	02813083          	ld	ra,40(sp)
    80004068:	02013403          	ld	s0,32(sp)
    8000406c:	01813483          	ld	s1,24(sp)
    80004070:	01013903          	ld	s2,16(sp)
    80004074:	00813983          	ld	s3,8(sp)
    80004078:	00013a03          	ld	s4,0(sp)
    8000407c:	03010113          	addi	sp,sp,48
    80004080:	00008067          	ret

0000000080004084 <bread>:
    80004084:	fd010113          	addi	sp,sp,-48
    80004088:	02113423          	sd	ra,40(sp)
    8000408c:	02813023          	sd	s0,32(sp)
    80004090:	00913c23          	sd	s1,24(sp)
    80004094:	01213823          	sd	s2,16(sp)
    80004098:	01313423          	sd	s3,8(sp)
    8000409c:	03010413          	addi	s0,sp,48
    800040a0:	00050913          	mv	s2,a0
    800040a4:	00058993          	mv	s3,a1
    800040a8:	00015517          	auipc	a0,0x15
    800040ac:	04050513          	addi	a0,a0,64 # 800190e8 <bcache>
    800040b0:	ffffd097          	auipc	ra,0xffffd
    800040b4:	f1c080e7          	jalr	-228(ra) # 80000fcc <acquire>
    800040b8:	0001d497          	auipc	s1,0x1d
    800040bc:	2e84b483          	ld	s1,744(s1) # 800213a0 <bcache+0x82b8>
    800040c0:	0001d797          	auipc	a5,0x1d
    800040c4:	29078793          	addi	a5,a5,656 # 80021350 <bcache+0x8268>
    800040c8:	04f48863          	beq	s1,a5,80004118 <bread+0x94>
    800040cc:	00078713          	mv	a4,a5
    800040d0:	00c0006f          	j	800040dc <bread+0x58>
    800040d4:	0504b483          	ld	s1,80(s1)
    800040d8:	04e48063          	beq	s1,a4,80004118 <bread+0x94>
    800040dc:	0084a783          	lw	a5,8(s1)
    800040e0:	ff279ae3          	bne	a5,s2,800040d4 <bread+0x50>
    800040e4:	00c4a783          	lw	a5,12(s1)
    800040e8:	ff3796e3          	bne	a5,s3,800040d4 <bread+0x50>
    800040ec:	0404a783          	lw	a5,64(s1)
    800040f0:	0017879b          	addiw	a5,a5,1
    800040f4:	04f4a023          	sw	a5,64(s1)
    800040f8:	00015517          	auipc	a0,0x15
    800040fc:	ff050513          	addi	a0,a0,-16 # 800190e8 <bcache>
    80004100:	ffffd097          	auipc	ra,0xffffd
    80004104:	fc4080e7          	jalr	-60(ra) # 800010c4 <release>
    80004108:	01048513          	addi	a0,s1,16
    8000410c:	00002097          	auipc	ra,0x2
    80004110:	c2c080e7          	jalr	-980(ra) # 80005d38 <acquiresleep>
    80004114:	06c0006f          	j	80004180 <bread+0xfc>
    80004118:	0001d497          	auipc	s1,0x1d
    8000411c:	2804b483          	ld	s1,640(s1) # 80021398 <bcache+0x82b0>
    80004120:	0001d797          	auipc	a5,0x1d
    80004124:	23078793          	addi	a5,a5,560 # 80021350 <bcache+0x8268>
    80004128:	00f48c63          	beq	s1,a5,80004140 <bread+0xbc>
    8000412c:	00078713          	mv	a4,a5
    80004130:	0404a783          	lw	a5,64(s1)
    80004134:	00078e63          	beqz	a5,80004150 <bread+0xcc>
    80004138:	0484b483          	ld	s1,72(s1)
    8000413c:	fee49ae3          	bne	s1,a4,80004130 <bread+0xac>
    80004140:	00006517          	auipc	a0,0x6
    80004144:	3c850513          	addi	a0,a0,968 # 8000a508 <syscalls+0xc0>
    80004148:	ffffc097          	auipc	ra,0xffffc
    8000414c:	588080e7          	jalr	1416(ra) # 800006d0 <panic>
    80004150:	0124a423          	sw	s2,8(s1)
    80004154:	0134a623          	sw	s3,12(s1)
    80004158:	0004a023          	sw	zero,0(s1)
    8000415c:	00100793          	li	a5,1
    80004160:	04f4a023          	sw	a5,64(s1)
    80004164:	00015517          	auipc	a0,0x15
    80004168:	f8450513          	addi	a0,a0,-124 # 800190e8 <bcache>
    8000416c:	ffffd097          	auipc	ra,0xffffd
    80004170:	f58080e7          	jalr	-168(ra) # 800010c4 <release>
    80004174:	01048513          	addi	a0,s1,16
    80004178:	00002097          	auipc	ra,0x2
    8000417c:	bc0080e7          	jalr	-1088(ra) # 80005d38 <acquiresleep>
    80004180:	0004a783          	lw	a5,0(s1)
    80004184:	02078263          	beqz	a5,800041a8 <bread+0x124>
    80004188:	00048513          	mv	a0,s1
    8000418c:	02813083          	ld	ra,40(sp)
    80004190:	02013403          	ld	s0,32(sp)
    80004194:	01813483          	ld	s1,24(sp)
    80004198:	01013903          	ld	s2,16(sp)
    8000419c:	00813983          	ld	s3,8(sp)
    800041a0:	03010113          	addi	sp,sp,48
    800041a4:	00008067          	ret
    800041a8:	00000593          	li	a1,0
    800041ac:	00048513          	mv	a0,s1
    800041b0:	00004097          	auipc	ra,0x4
    800041b4:	03c080e7          	jalr	60(ra) # 800081ec <virtio_disk_rw>
    800041b8:	00100793          	li	a5,1
    800041bc:	00f4a023          	sw	a5,0(s1)
    800041c0:	fc9ff06f          	j	80004188 <bread+0x104>

00000000800041c4 <bwrite>:
    800041c4:	fe010113          	addi	sp,sp,-32
    800041c8:	00113c23          	sd	ra,24(sp)
    800041cc:	00813823          	sd	s0,16(sp)
    800041d0:	00913423          	sd	s1,8(sp)
    800041d4:	02010413          	addi	s0,sp,32
    800041d8:	00050493          	mv	s1,a0
    800041dc:	01050513          	addi	a0,a0,16
    800041e0:	00002097          	auipc	ra,0x2
    800041e4:	c44080e7          	jalr	-956(ra) # 80005e24 <holdingsleep>
    800041e8:	02050463          	beqz	a0,80004210 <bwrite+0x4c>
    800041ec:	00100593          	li	a1,1
    800041f0:	00048513          	mv	a0,s1
    800041f4:	00004097          	auipc	ra,0x4
    800041f8:	ff8080e7          	jalr	-8(ra) # 800081ec <virtio_disk_rw>
    800041fc:	01813083          	ld	ra,24(sp)
    80004200:	01013403          	ld	s0,16(sp)
    80004204:	00813483          	ld	s1,8(sp)
    80004208:	02010113          	addi	sp,sp,32
    8000420c:	00008067          	ret
    80004210:	00006517          	auipc	a0,0x6
    80004214:	31050513          	addi	a0,a0,784 # 8000a520 <syscalls+0xd8>
    80004218:	ffffc097          	auipc	ra,0xffffc
    8000421c:	4b8080e7          	jalr	1208(ra) # 800006d0 <panic>

0000000080004220 <brelse>:
    80004220:	fe010113          	addi	sp,sp,-32
    80004224:	00113c23          	sd	ra,24(sp)
    80004228:	00813823          	sd	s0,16(sp)
    8000422c:	00913423          	sd	s1,8(sp)
    80004230:	01213023          	sd	s2,0(sp)
    80004234:	02010413          	addi	s0,sp,32
    80004238:	00050493          	mv	s1,a0
    8000423c:	01050913          	addi	s2,a0,16
    80004240:	00090513          	mv	a0,s2
    80004244:	00002097          	auipc	ra,0x2
    80004248:	be0080e7          	jalr	-1056(ra) # 80005e24 <holdingsleep>
    8000424c:	08050e63          	beqz	a0,800042e8 <brelse+0xc8>
    80004250:	00090513          	mv	a0,s2
    80004254:	00002097          	auipc	ra,0x2
    80004258:	b6c080e7          	jalr	-1172(ra) # 80005dc0 <releasesleep>
    8000425c:	00015517          	auipc	a0,0x15
    80004260:	e8c50513          	addi	a0,a0,-372 # 800190e8 <bcache>
    80004264:	ffffd097          	auipc	ra,0xffffd
    80004268:	d68080e7          	jalr	-664(ra) # 80000fcc <acquire>
    8000426c:	0404a783          	lw	a5,64(s1)
    80004270:	fff7879b          	addiw	a5,a5,-1
    80004274:	0007871b          	sext.w	a4,a5
    80004278:	04f4a023          	sw	a5,64(s1)
    8000427c:	04071263          	bnez	a4,800042c0 <brelse+0xa0>
    80004280:	0504b783          	ld	a5,80(s1)
    80004284:	0484b703          	ld	a4,72(s1)
    80004288:	04e7b423          	sd	a4,72(a5)
    8000428c:	0484b783          	ld	a5,72(s1)
    80004290:	0504b703          	ld	a4,80(s1)
    80004294:	04e7b823          	sd	a4,80(a5)
    80004298:	0001d797          	auipc	a5,0x1d
    8000429c:	e5078793          	addi	a5,a5,-432 # 800210e8 <bcache+0x8000>
    800042a0:	2b87b703          	ld	a4,696(a5)
    800042a4:	04e4b823          	sd	a4,80(s1)
    800042a8:	0001d717          	auipc	a4,0x1d
    800042ac:	0a870713          	addi	a4,a4,168 # 80021350 <bcache+0x8268>
    800042b0:	04e4b423          	sd	a4,72(s1)
    800042b4:	2b87b703          	ld	a4,696(a5)
    800042b8:	04973423          	sd	s1,72(a4)
    800042bc:	2a97bc23          	sd	s1,696(a5)
    800042c0:	00015517          	auipc	a0,0x15
    800042c4:	e2850513          	addi	a0,a0,-472 # 800190e8 <bcache>
    800042c8:	ffffd097          	auipc	ra,0xffffd
    800042cc:	dfc080e7          	jalr	-516(ra) # 800010c4 <release>
    800042d0:	01813083          	ld	ra,24(sp)
    800042d4:	01013403          	ld	s0,16(sp)
    800042d8:	00813483          	ld	s1,8(sp)
    800042dc:	00013903          	ld	s2,0(sp)
    800042e0:	02010113          	addi	sp,sp,32
    800042e4:	00008067          	ret
    800042e8:	00006517          	auipc	a0,0x6
    800042ec:	24050513          	addi	a0,a0,576 # 8000a528 <syscalls+0xe0>
    800042f0:	ffffc097          	auipc	ra,0xffffc
    800042f4:	3e0080e7          	jalr	992(ra) # 800006d0 <panic>

00000000800042f8 <bpin>:
    800042f8:	fe010113          	addi	sp,sp,-32
    800042fc:	00113c23          	sd	ra,24(sp)
    80004300:	00813823          	sd	s0,16(sp)
    80004304:	00913423          	sd	s1,8(sp)
    80004308:	02010413          	addi	s0,sp,32
    8000430c:	00050493          	mv	s1,a0
    80004310:	00015517          	auipc	a0,0x15
    80004314:	dd850513          	addi	a0,a0,-552 # 800190e8 <bcache>
    80004318:	ffffd097          	auipc	ra,0xffffd
    8000431c:	cb4080e7          	jalr	-844(ra) # 80000fcc <acquire>
    80004320:	0404a783          	lw	a5,64(s1)
    80004324:	0017879b          	addiw	a5,a5,1
    80004328:	04f4a023          	sw	a5,64(s1)
    8000432c:	00015517          	auipc	a0,0x15
    80004330:	dbc50513          	addi	a0,a0,-580 # 800190e8 <bcache>
    80004334:	ffffd097          	auipc	ra,0xffffd
    80004338:	d90080e7          	jalr	-624(ra) # 800010c4 <release>
    8000433c:	01813083          	ld	ra,24(sp)
    80004340:	01013403          	ld	s0,16(sp)
    80004344:	00813483          	ld	s1,8(sp)
    80004348:	02010113          	addi	sp,sp,32
    8000434c:	00008067          	ret

0000000080004350 <bunpin>:
    80004350:	fe010113          	addi	sp,sp,-32
    80004354:	00113c23          	sd	ra,24(sp)
    80004358:	00813823          	sd	s0,16(sp)
    8000435c:	00913423          	sd	s1,8(sp)
    80004360:	02010413          	addi	s0,sp,32
    80004364:	00050493          	mv	s1,a0
    80004368:	00015517          	auipc	a0,0x15
    8000436c:	d8050513          	addi	a0,a0,-640 # 800190e8 <bcache>
    80004370:	ffffd097          	auipc	ra,0xffffd
    80004374:	c5c080e7          	jalr	-932(ra) # 80000fcc <acquire>
    80004378:	0404a783          	lw	a5,64(s1)
    8000437c:	fff7879b          	addiw	a5,a5,-1
    80004380:	04f4a023          	sw	a5,64(s1)
    80004384:	00015517          	auipc	a0,0x15
    80004388:	d6450513          	addi	a0,a0,-668 # 800190e8 <bcache>
    8000438c:	ffffd097          	auipc	ra,0xffffd
    80004390:	d38080e7          	jalr	-712(ra) # 800010c4 <release>
    80004394:	01813083          	ld	ra,24(sp)
    80004398:	01013403          	ld	s0,16(sp)
    8000439c:	00813483          	ld	s1,8(sp)
    800043a0:	02010113          	addi	sp,sp,32
    800043a4:	00008067          	ret

00000000800043a8 <bfree>:
    800043a8:	fe010113          	addi	sp,sp,-32
    800043ac:	00113c23          	sd	ra,24(sp)
    800043b0:	00813823          	sd	s0,16(sp)
    800043b4:	00913423          	sd	s1,8(sp)
    800043b8:	01213023          	sd	s2,0(sp)
    800043bc:	02010413          	addi	s0,sp,32
    800043c0:	00058493          	mv	s1,a1
    800043c4:	00d5d59b          	srliw	a1,a1,0xd
    800043c8:	0001d797          	auipc	a5,0x1d
    800043cc:	3fc7a783          	lw	a5,1020(a5) # 800217c4 <sb+0x1c>
    800043d0:	00f585bb          	addw	a1,a1,a5
    800043d4:	00000097          	auipc	ra,0x0
    800043d8:	cb0080e7          	jalr	-848(ra) # 80004084 <bread>
    800043dc:	0074f713          	andi	a4,s1,7
    800043e0:	00100793          	li	a5,1
    800043e4:	00e797bb          	sllw	a5,a5,a4
    800043e8:	03349493          	slli	s1,s1,0x33
    800043ec:	0364d493          	srli	s1,s1,0x36
    800043f0:	00950733          	add	a4,a0,s1
    800043f4:	05874703          	lbu	a4,88(a4)
    800043f8:	00e7f6b3          	and	a3,a5,a4
    800043fc:	04068263          	beqz	a3,80004440 <bfree+0x98>
    80004400:	00050913          	mv	s2,a0
    80004404:	009504b3          	add	s1,a0,s1
    80004408:	fff7c793          	not	a5,a5
    8000440c:	00f77733          	and	a4,a4,a5
    80004410:	04e48c23          	sb	a4,88(s1)
    80004414:	00001097          	auipc	ra,0x1
    80004418:	7a0080e7          	jalr	1952(ra) # 80005bb4 <log_write>
    8000441c:	00090513          	mv	a0,s2
    80004420:	00000097          	auipc	ra,0x0
    80004424:	e00080e7          	jalr	-512(ra) # 80004220 <brelse>
    80004428:	01813083          	ld	ra,24(sp)
    8000442c:	01013403          	ld	s0,16(sp)
    80004430:	00813483          	ld	s1,8(sp)
    80004434:	00013903          	ld	s2,0(sp)
    80004438:	02010113          	addi	sp,sp,32
    8000443c:	00008067          	ret
    80004440:	00006517          	auipc	a0,0x6
    80004444:	0f050513          	addi	a0,a0,240 # 8000a530 <syscalls+0xe8>
    80004448:	ffffc097          	auipc	ra,0xffffc
    8000444c:	288080e7          	jalr	648(ra) # 800006d0 <panic>

0000000080004450 <balloc>:
    80004450:	fa010113          	addi	sp,sp,-96
    80004454:	04113c23          	sd	ra,88(sp)
    80004458:	04813823          	sd	s0,80(sp)
    8000445c:	04913423          	sd	s1,72(sp)
    80004460:	05213023          	sd	s2,64(sp)
    80004464:	03313c23          	sd	s3,56(sp)
    80004468:	03413823          	sd	s4,48(sp)
    8000446c:	03513423          	sd	s5,40(sp)
    80004470:	03613023          	sd	s6,32(sp)
    80004474:	01713c23          	sd	s7,24(sp)
    80004478:	01813823          	sd	s8,16(sp)
    8000447c:	01913423          	sd	s9,8(sp)
    80004480:	06010413          	addi	s0,sp,96
    80004484:	0001d797          	auipc	a5,0x1d
    80004488:	3287a783          	lw	a5,808(a5) # 800217ac <sb+0x4>
    8000448c:	0a078a63          	beqz	a5,80004540 <balloc+0xf0>
    80004490:	00050b93          	mv	s7,a0
    80004494:	00000a93          	li	s5,0
    80004498:	0001db17          	auipc	s6,0x1d
    8000449c:	310b0b13          	addi	s6,s6,784 # 800217a8 <sb>
    800044a0:	00000c13          	li	s8,0
    800044a4:	00100993          	li	s3,1
    800044a8:	00002a37          	lui	s4,0x2
    800044ac:	00002cb7          	lui	s9,0x2
    800044b0:	0200006f          	j	800044d0 <balloc+0x80>
    800044b4:	00090513          	mv	a0,s2
    800044b8:	00000097          	auipc	ra,0x0
    800044bc:	d68080e7          	jalr	-664(ra) # 80004220 <brelse>
    800044c0:	015c87bb          	addw	a5,s9,s5
    800044c4:	00078a9b          	sext.w	s5,a5
    800044c8:	004b2703          	lw	a4,4(s6)
    800044cc:	06eafa63          	bgeu	s5,a4,80004540 <balloc+0xf0>
    800044d0:	41fad79b          	sraiw	a5,s5,0x1f
    800044d4:	0137d79b          	srliw	a5,a5,0x13
    800044d8:	015787bb          	addw	a5,a5,s5
    800044dc:	40d7d79b          	sraiw	a5,a5,0xd
    800044e0:	01cb2583          	lw	a1,28(s6)
    800044e4:	00b785bb          	addw	a1,a5,a1
    800044e8:	000b8513          	mv	a0,s7
    800044ec:	00000097          	auipc	ra,0x0
    800044f0:	b98080e7          	jalr	-1128(ra) # 80004084 <bread>
    800044f4:	00050913          	mv	s2,a0
    800044f8:	004b2503          	lw	a0,4(s6)
    800044fc:	000a849b          	sext.w	s1,s5
    80004500:	000c0713          	mv	a4,s8
    80004504:	faa4f8e3          	bgeu	s1,a0,800044b4 <balloc+0x64>
    80004508:	00777693          	andi	a3,a4,7
    8000450c:	00d996bb          	sllw	a3,s3,a3
    80004510:	41f7579b          	sraiw	a5,a4,0x1f
    80004514:	01d7d79b          	srliw	a5,a5,0x1d
    80004518:	00e787bb          	addw	a5,a5,a4
    8000451c:	4037d79b          	sraiw	a5,a5,0x3
    80004520:	00f90633          	add	a2,s2,a5
    80004524:	05864603          	lbu	a2,88(a2)
    80004528:	00c6f5b3          	and	a1,a3,a2
    8000452c:	02058263          	beqz	a1,80004550 <balloc+0x100>
    80004530:	0017071b          	addiw	a4,a4,1
    80004534:	0014849b          	addiw	s1,s1,1
    80004538:	fd4716e3          	bne	a4,s4,80004504 <balloc+0xb4>
    8000453c:	f79ff06f          	j	800044b4 <balloc+0x64>
    80004540:	00006517          	auipc	a0,0x6
    80004544:	00850513          	addi	a0,a0,8 # 8000a548 <syscalls+0x100>
    80004548:	ffffc097          	auipc	ra,0xffffc
    8000454c:	188080e7          	jalr	392(ra) # 800006d0 <panic>
    80004550:	00f907b3          	add	a5,s2,a5
    80004554:	00d66633          	or	a2,a2,a3
    80004558:	04c78c23          	sb	a2,88(a5)
    8000455c:	00090513          	mv	a0,s2
    80004560:	00001097          	auipc	ra,0x1
    80004564:	654080e7          	jalr	1620(ra) # 80005bb4 <log_write>
    80004568:	00090513          	mv	a0,s2
    8000456c:	00000097          	auipc	ra,0x0
    80004570:	cb4080e7          	jalr	-844(ra) # 80004220 <brelse>
    80004574:	00048593          	mv	a1,s1
    80004578:	000b8513          	mv	a0,s7
    8000457c:	00000097          	auipc	ra,0x0
    80004580:	b08080e7          	jalr	-1272(ra) # 80004084 <bread>
    80004584:	00050913          	mv	s2,a0
    80004588:	40000613          	li	a2,1024
    8000458c:	00000593          	li	a1,0
    80004590:	05850513          	addi	a0,a0,88
    80004594:	ffffd097          	auipc	ra,0xffffd
    80004598:	b90080e7          	jalr	-1136(ra) # 80001124 <memset>
    8000459c:	00090513          	mv	a0,s2
    800045a0:	00001097          	auipc	ra,0x1
    800045a4:	614080e7          	jalr	1556(ra) # 80005bb4 <log_write>
    800045a8:	00090513          	mv	a0,s2
    800045ac:	00000097          	auipc	ra,0x0
    800045b0:	c74080e7          	jalr	-908(ra) # 80004220 <brelse>
    800045b4:	00048513          	mv	a0,s1
    800045b8:	05813083          	ld	ra,88(sp)
    800045bc:	05013403          	ld	s0,80(sp)
    800045c0:	04813483          	ld	s1,72(sp)
    800045c4:	04013903          	ld	s2,64(sp)
    800045c8:	03813983          	ld	s3,56(sp)
    800045cc:	03013a03          	ld	s4,48(sp)
    800045d0:	02813a83          	ld	s5,40(sp)
    800045d4:	02013b03          	ld	s6,32(sp)
    800045d8:	01813b83          	ld	s7,24(sp)
    800045dc:	01013c03          	ld	s8,16(sp)
    800045e0:	00813c83          	ld	s9,8(sp)
    800045e4:	06010113          	addi	sp,sp,96
    800045e8:	00008067          	ret

00000000800045ec <bmap>:
    800045ec:	fd010113          	addi	sp,sp,-48
    800045f0:	02113423          	sd	ra,40(sp)
    800045f4:	02813023          	sd	s0,32(sp)
    800045f8:	00913c23          	sd	s1,24(sp)
    800045fc:	01213823          	sd	s2,16(sp)
    80004600:	01313423          	sd	s3,8(sp)
    80004604:	01413023          	sd	s4,0(sp)
    80004608:	03010413          	addi	s0,sp,48
    8000460c:	00050913          	mv	s2,a0
    80004610:	00b00793          	li	a5,11
    80004614:	06b7fa63          	bgeu	a5,a1,80004688 <bmap+0x9c>
    80004618:	ff45849b          	addiw	s1,a1,-12
    8000461c:	0004871b          	sext.w	a4,s1
    80004620:	0ff00793          	li	a5,255
    80004624:	0ce7e663          	bltu	a5,a4,800046f0 <bmap+0x104>
    80004628:	08052583          	lw	a1,128(a0)
    8000462c:	08058463          	beqz	a1,800046b4 <bmap+0xc8>
    80004630:	00092503          	lw	a0,0(s2)
    80004634:	00000097          	auipc	ra,0x0
    80004638:	a50080e7          	jalr	-1456(ra) # 80004084 <bread>
    8000463c:	00050a13          	mv	s4,a0
    80004640:	05850793          	addi	a5,a0,88
    80004644:	02049713          	slli	a4,s1,0x20
    80004648:	01e75593          	srli	a1,a4,0x1e
    8000464c:	00b784b3          	add	s1,a5,a1
    80004650:	0004a983          	lw	s3,0(s1)
    80004654:	06098c63          	beqz	s3,800046cc <bmap+0xe0>
    80004658:	000a0513          	mv	a0,s4
    8000465c:	00000097          	auipc	ra,0x0
    80004660:	bc4080e7          	jalr	-1084(ra) # 80004220 <brelse>
    80004664:	00098513          	mv	a0,s3
    80004668:	02813083          	ld	ra,40(sp)
    8000466c:	02013403          	ld	s0,32(sp)
    80004670:	01813483          	ld	s1,24(sp)
    80004674:	01013903          	ld	s2,16(sp)
    80004678:	00813983          	ld	s3,8(sp)
    8000467c:	00013a03          	ld	s4,0(sp)
    80004680:	03010113          	addi	sp,sp,48
    80004684:	00008067          	ret
    80004688:	02059793          	slli	a5,a1,0x20
    8000468c:	01e7d593          	srli	a1,a5,0x1e
    80004690:	00b504b3          	add	s1,a0,a1
    80004694:	0504a983          	lw	s3,80(s1)
    80004698:	fc0996e3          	bnez	s3,80004664 <bmap+0x78>
    8000469c:	00052503          	lw	a0,0(a0)
    800046a0:	00000097          	auipc	ra,0x0
    800046a4:	db0080e7          	jalr	-592(ra) # 80004450 <balloc>
    800046a8:	0005099b          	sext.w	s3,a0
    800046ac:	0534a823          	sw	s3,80(s1)
    800046b0:	fb5ff06f          	j	80004664 <bmap+0x78>
    800046b4:	00052503          	lw	a0,0(a0)
    800046b8:	00000097          	auipc	ra,0x0
    800046bc:	d98080e7          	jalr	-616(ra) # 80004450 <balloc>
    800046c0:	0005059b          	sext.w	a1,a0
    800046c4:	08b92023          	sw	a1,128(s2)
    800046c8:	f69ff06f          	j	80004630 <bmap+0x44>
    800046cc:	00092503          	lw	a0,0(s2)
    800046d0:	00000097          	auipc	ra,0x0
    800046d4:	d80080e7          	jalr	-640(ra) # 80004450 <balloc>
    800046d8:	0005099b          	sext.w	s3,a0
    800046dc:	0134a023          	sw	s3,0(s1)
    800046e0:	000a0513          	mv	a0,s4
    800046e4:	00001097          	auipc	ra,0x1
    800046e8:	4d0080e7          	jalr	1232(ra) # 80005bb4 <log_write>
    800046ec:	f6dff06f          	j	80004658 <bmap+0x6c>
    800046f0:	00006517          	auipc	a0,0x6
    800046f4:	e7050513          	addi	a0,a0,-400 # 8000a560 <syscalls+0x118>
    800046f8:	ffffc097          	auipc	ra,0xffffc
    800046fc:	fd8080e7          	jalr	-40(ra) # 800006d0 <panic>

0000000080004700 <iget>:
    80004700:	fd010113          	addi	sp,sp,-48
    80004704:	02113423          	sd	ra,40(sp)
    80004708:	02813023          	sd	s0,32(sp)
    8000470c:	00913c23          	sd	s1,24(sp)
    80004710:	01213823          	sd	s2,16(sp)
    80004714:	01313423          	sd	s3,8(sp)
    80004718:	01413023          	sd	s4,0(sp)
    8000471c:	03010413          	addi	s0,sp,48
    80004720:	00050993          	mv	s3,a0
    80004724:	00058a13          	mv	s4,a1
    80004728:	0001d517          	auipc	a0,0x1d
    8000472c:	0a050513          	addi	a0,a0,160 # 800217c8 <itable>
    80004730:	ffffd097          	auipc	ra,0xffffd
    80004734:	89c080e7          	jalr	-1892(ra) # 80000fcc <acquire>
    80004738:	00000913          	li	s2,0
    8000473c:	0001d497          	auipc	s1,0x1d
    80004740:	0a448493          	addi	s1,s1,164 # 800217e0 <itable+0x18>
    80004744:	0001f697          	auipc	a3,0x1f
    80004748:	b2c68693          	addi	a3,a3,-1236 # 80023270 <log>
    8000474c:	0100006f          	j	8000475c <iget+0x5c>
    80004750:	04090263          	beqz	s2,80004794 <iget+0x94>
    80004754:	08848493          	addi	s1,s1,136
    80004758:	04d48463          	beq	s1,a3,800047a0 <iget+0xa0>
    8000475c:	0084a783          	lw	a5,8(s1)
    80004760:	fef058e3          	blez	a5,80004750 <iget+0x50>
    80004764:	0004a703          	lw	a4,0(s1)
    80004768:	ff3714e3          	bne	a4,s3,80004750 <iget+0x50>
    8000476c:	0044a703          	lw	a4,4(s1)
    80004770:	ff4710e3          	bne	a4,s4,80004750 <iget+0x50>
    80004774:	0017879b          	addiw	a5,a5,1
    80004778:	00f4a423          	sw	a5,8(s1)
    8000477c:	0001d517          	auipc	a0,0x1d
    80004780:	04c50513          	addi	a0,a0,76 # 800217c8 <itable>
    80004784:	ffffd097          	auipc	ra,0xffffd
    80004788:	940080e7          	jalr	-1728(ra) # 800010c4 <release>
    8000478c:	00048913          	mv	s2,s1
    80004790:	0380006f          	j	800047c8 <iget+0xc8>
    80004794:	fc0790e3          	bnez	a5,80004754 <iget+0x54>
    80004798:	00048913          	mv	s2,s1
    8000479c:	fb9ff06f          	j	80004754 <iget+0x54>
    800047a0:	04090663          	beqz	s2,800047ec <iget+0xec>
    800047a4:	01392023          	sw	s3,0(s2)
    800047a8:	01492223          	sw	s4,4(s2)
    800047ac:	00100793          	li	a5,1
    800047b0:	00f92423          	sw	a5,8(s2)
    800047b4:	04092023          	sw	zero,64(s2)
    800047b8:	0001d517          	auipc	a0,0x1d
    800047bc:	01050513          	addi	a0,a0,16 # 800217c8 <itable>
    800047c0:	ffffd097          	auipc	ra,0xffffd
    800047c4:	904080e7          	jalr	-1788(ra) # 800010c4 <release>
    800047c8:	00090513          	mv	a0,s2
    800047cc:	02813083          	ld	ra,40(sp)
    800047d0:	02013403          	ld	s0,32(sp)
    800047d4:	01813483          	ld	s1,24(sp)
    800047d8:	01013903          	ld	s2,16(sp)
    800047dc:	00813983          	ld	s3,8(sp)
    800047e0:	00013a03          	ld	s4,0(sp)
    800047e4:	03010113          	addi	sp,sp,48
    800047e8:	00008067          	ret
    800047ec:	00006517          	auipc	a0,0x6
    800047f0:	d8c50513          	addi	a0,a0,-628 # 8000a578 <syscalls+0x130>
    800047f4:	ffffc097          	auipc	ra,0xffffc
    800047f8:	edc080e7          	jalr	-292(ra) # 800006d0 <panic>

00000000800047fc <fsinit>:
    800047fc:	fd010113          	addi	sp,sp,-48
    80004800:	02113423          	sd	ra,40(sp)
    80004804:	02813023          	sd	s0,32(sp)
    80004808:	00913c23          	sd	s1,24(sp)
    8000480c:	01213823          	sd	s2,16(sp)
    80004810:	01313423          	sd	s3,8(sp)
    80004814:	03010413          	addi	s0,sp,48
    80004818:	00050913          	mv	s2,a0
    8000481c:	00100593          	li	a1,1
    80004820:	00000097          	auipc	ra,0x0
    80004824:	864080e7          	jalr	-1948(ra) # 80004084 <bread>
    80004828:	00050493          	mv	s1,a0
    8000482c:	0001d997          	auipc	s3,0x1d
    80004830:	f7c98993          	addi	s3,s3,-132 # 800217a8 <sb>
    80004834:	02000613          	li	a2,32
    80004838:	05850593          	addi	a1,a0,88
    8000483c:	00098513          	mv	a0,s3
    80004840:	ffffd097          	auipc	ra,0xffffd
    80004844:	978080e7          	jalr	-1672(ra) # 800011b8 <memmove>
    80004848:	00048513          	mv	a0,s1
    8000484c:	00000097          	auipc	ra,0x0
    80004850:	9d4080e7          	jalr	-1580(ra) # 80004220 <brelse>
    80004854:	0009a703          	lw	a4,0(s3)
    80004858:	102037b7          	lui	a5,0x10203
    8000485c:	04078793          	addi	a5,a5,64 # 10203040 <_entry-0x6fdfcfc0>
    80004860:	02f71a63          	bne	a4,a5,80004894 <fsinit+0x98>
    80004864:	0001d597          	auipc	a1,0x1d
    80004868:	f4458593          	addi	a1,a1,-188 # 800217a8 <sb>
    8000486c:	00090513          	mv	a0,s2
    80004870:	00001097          	auipc	ra,0x1
    80004874:	000080e7          	jalr	ra # 80005870 <initlog>
    80004878:	02813083          	ld	ra,40(sp)
    8000487c:	02013403          	ld	s0,32(sp)
    80004880:	01813483          	ld	s1,24(sp)
    80004884:	01013903          	ld	s2,16(sp)
    80004888:	00813983          	ld	s3,8(sp)
    8000488c:	03010113          	addi	sp,sp,48
    80004890:	00008067          	ret
    80004894:	00006517          	auipc	a0,0x6
    80004898:	cf450513          	addi	a0,a0,-780 # 8000a588 <syscalls+0x140>
    8000489c:	ffffc097          	auipc	ra,0xffffc
    800048a0:	e34080e7          	jalr	-460(ra) # 800006d0 <panic>

00000000800048a4 <iinit>:
    800048a4:	fd010113          	addi	sp,sp,-48
    800048a8:	02113423          	sd	ra,40(sp)
    800048ac:	02813023          	sd	s0,32(sp)
    800048b0:	00913c23          	sd	s1,24(sp)
    800048b4:	01213823          	sd	s2,16(sp)
    800048b8:	01313423          	sd	s3,8(sp)
    800048bc:	03010413          	addi	s0,sp,48
    800048c0:	00006597          	auipc	a1,0x6
    800048c4:	ce058593          	addi	a1,a1,-800 # 8000a5a0 <syscalls+0x158>
    800048c8:	0001d517          	auipc	a0,0x1d
    800048cc:	f0050513          	addi	a0,a0,-256 # 800217c8 <itable>
    800048d0:	ffffc097          	auipc	ra,0xffffc
    800048d4:	618080e7          	jalr	1560(ra) # 80000ee8 <initlock>
    800048d8:	0001d497          	auipc	s1,0x1d
    800048dc:	f1848493          	addi	s1,s1,-232 # 800217f0 <itable+0x28>
    800048e0:	0001f997          	auipc	s3,0x1f
    800048e4:	9a098993          	addi	s3,s3,-1632 # 80023280 <log+0x10>
    800048e8:	00006917          	auipc	s2,0x6
    800048ec:	cc090913          	addi	s2,s2,-832 # 8000a5a8 <syscalls+0x160>
    800048f0:	00090593          	mv	a1,s2
    800048f4:	00048513          	mv	a0,s1
    800048f8:	00001097          	auipc	ra,0x1
    800048fc:	3e8080e7          	jalr	1000(ra) # 80005ce0 <initsleeplock>
    80004900:	08848493          	addi	s1,s1,136
    80004904:	ff3496e3          	bne	s1,s3,800048f0 <iinit+0x4c>
    80004908:	02813083          	ld	ra,40(sp)
    8000490c:	02013403          	ld	s0,32(sp)
    80004910:	01813483          	ld	s1,24(sp)
    80004914:	01013903          	ld	s2,16(sp)
    80004918:	00813983          	ld	s3,8(sp)
    8000491c:	03010113          	addi	sp,sp,48
    80004920:	00008067          	ret

0000000080004924 <ialloc>:
    80004924:	fb010113          	addi	sp,sp,-80
    80004928:	04113423          	sd	ra,72(sp)
    8000492c:	04813023          	sd	s0,64(sp)
    80004930:	02913c23          	sd	s1,56(sp)
    80004934:	03213823          	sd	s2,48(sp)
    80004938:	03313423          	sd	s3,40(sp)
    8000493c:	03413023          	sd	s4,32(sp)
    80004940:	01513c23          	sd	s5,24(sp)
    80004944:	01613823          	sd	s6,16(sp)
    80004948:	01713423          	sd	s7,8(sp)
    8000494c:	05010413          	addi	s0,sp,80
    80004950:	0001d717          	auipc	a4,0x1d
    80004954:	e6472703          	lw	a4,-412(a4) # 800217b4 <sb+0xc>
    80004958:	00100793          	li	a5,1
    8000495c:	06e7f463          	bgeu	a5,a4,800049c4 <ialloc+0xa0>
    80004960:	00050a93          	mv	s5,a0
    80004964:	00058b93          	mv	s7,a1
    80004968:	00100493          	li	s1,1
    8000496c:	0001da17          	auipc	s4,0x1d
    80004970:	e3ca0a13          	addi	s4,s4,-452 # 800217a8 <sb>
    80004974:	00048b1b          	sext.w	s6,s1
    80004978:	0044d593          	srli	a1,s1,0x4
    8000497c:	018a2783          	lw	a5,24(s4)
    80004980:	00b785bb          	addw	a1,a5,a1
    80004984:	000a8513          	mv	a0,s5
    80004988:	fffff097          	auipc	ra,0xfffff
    8000498c:	6fc080e7          	jalr	1788(ra) # 80004084 <bread>
    80004990:	00050913          	mv	s2,a0
    80004994:	05850993          	addi	s3,a0,88
    80004998:	00f4f793          	andi	a5,s1,15
    8000499c:	00679793          	slli	a5,a5,0x6
    800049a0:	00f989b3          	add	s3,s3,a5
    800049a4:	00099783          	lh	a5,0(s3)
    800049a8:	02078663          	beqz	a5,800049d4 <ialloc+0xb0>
    800049ac:	00000097          	auipc	ra,0x0
    800049b0:	874080e7          	jalr	-1932(ra) # 80004220 <brelse>
    800049b4:	00148493          	addi	s1,s1,1
    800049b8:	00ca2703          	lw	a4,12(s4)
    800049bc:	0004879b          	sext.w	a5,s1
    800049c0:	fae7eae3          	bltu	a5,a4,80004974 <ialloc+0x50>
    800049c4:	00006517          	auipc	a0,0x6
    800049c8:	bec50513          	addi	a0,a0,-1044 # 8000a5b0 <syscalls+0x168>
    800049cc:	ffffc097          	auipc	ra,0xffffc
    800049d0:	d04080e7          	jalr	-764(ra) # 800006d0 <panic>
    800049d4:	04000613          	li	a2,64
    800049d8:	00000593          	li	a1,0
    800049dc:	00098513          	mv	a0,s3
    800049e0:	ffffc097          	auipc	ra,0xffffc
    800049e4:	744080e7          	jalr	1860(ra) # 80001124 <memset>
    800049e8:	01799023          	sh	s7,0(s3)
    800049ec:	00090513          	mv	a0,s2
    800049f0:	00001097          	auipc	ra,0x1
    800049f4:	1c4080e7          	jalr	452(ra) # 80005bb4 <log_write>
    800049f8:	00090513          	mv	a0,s2
    800049fc:	00000097          	auipc	ra,0x0
    80004a00:	824080e7          	jalr	-2012(ra) # 80004220 <brelse>
    80004a04:	000b0593          	mv	a1,s6
    80004a08:	000a8513          	mv	a0,s5
    80004a0c:	00000097          	auipc	ra,0x0
    80004a10:	cf4080e7          	jalr	-780(ra) # 80004700 <iget>
    80004a14:	04813083          	ld	ra,72(sp)
    80004a18:	04013403          	ld	s0,64(sp)
    80004a1c:	03813483          	ld	s1,56(sp)
    80004a20:	03013903          	ld	s2,48(sp)
    80004a24:	02813983          	ld	s3,40(sp)
    80004a28:	02013a03          	ld	s4,32(sp)
    80004a2c:	01813a83          	ld	s5,24(sp)
    80004a30:	01013b03          	ld	s6,16(sp)
    80004a34:	00813b83          	ld	s7,8(sp)
    80004a38:	05010113          	addi	sp,sp,80
    80004a3c:	00008067          	ret

0000000080004a40 <iupdate>:
    80004a40:	fe010113          	addi	sp,sp,-32
    80004a44:	00113c23          	sd	ra,24(sp)
    80004a48:	00813823          	sd	s0,16(sp)
    80004a4c:	00913423          	sd	s1,8(sp)
    80004a50:	01213023          	sd	s2,0(sp)
    80004a54:	02010413          	addi	s0,sp,32
    80004a58:	00050493          	mv	s1,a0
    80004a5c:	00452783          	lw	a5,4(a0)
    80004a60:	0047d79b          	srliw	a5,a5,0x4
    80004a64:	0001d597          	auipc	a1,0x1d
    80004a68:	d5c5a583          	lw	a1,-676(a1) # 800217c0 <sb+0x18>
    80004a6c:	00b785bb          	addw	a1,a5,a1
    80004a70:	00052503          	lw	a0,0(a0)
    80004a74:	fffff097          	auipc	ra,0xfffff
    80004a78:	610080e7          	jalr	1552(ra) # 80004084 <bread>
    80004a7c:	00050913          	mv	s2,a0
    80004a80:	05850793          	addi	a5,a0,88
    80004a84:	0044a703          	lw	a4,4(s1)
    80004a88:	00f77713          	andi	a4,a4,15
    80004a8c:	00671713          	slli	a4,a4,0x6
    80004a90:	00e787b3          	add	a5,a5,a4
    80004a94:	04449703          	lh	a4,68(s1)
    80004a98:	00e79023          	sh	a4,0(a5)
    80004a9c:	04649703          	lh	a4,70(s1)
    80004aa0:	00e79123          	sh	a4,2(a5)
    80004aa4:	04849703          	lh	a4,72(s1)
    80004aa8:	00e79223          	sh	a4,4(a5)
    80004aac:	04a49703          	lh	a4,74(s1)
    80004ab0:	00e79323          	sh	a4,6(a5)
    80004ab4:	04c4a703          	lw	a4,76(s1)
    80004ab8:	00e7a423          	sw	a4,8(a5)
    80004abc:	03400613          	li	a2,52
    80004ac0:	05048593          	addi	a1,s1,80
    80004ac4:	00c78513          	addi	a0,a5,12
    80004ac8:	ffffc097          	auipc	ra,0xffffc
    80004acc:	6f0080e7          	jalr	1776(ra) # 800011b8 <memmove>
    80004ad0:	00090513          	mv	a0,s2
    80004ad4:	00001097          	auipc	ra,0x1
    80004ad8:	0e0080e7          	jalr	224(ra) # 80005bb4 <log_write>
    80004adc:	00090513          	mv	a0,s2
    80004ae0:	fffff097          	auipc	ra,0xfffff
    80004ae4:	740080e7          	jalr	1856(ra) # 80004220 <brelse>
    80004ae8:	01813083          	ld	ra,24(sp)
    80004aec:	01013403          	ld	s0,16(sp)
    80004af0:	00813483          	ld	s1,8(sp)
    80004af4:	00013903          	ld	s2,0(sp)
    80004af8:	02010113          	addi	sp,sp,32
    80004afc:	00008067          	ret

0000000080004b00 <idup>:
    80004b00:	fe010113          	addi	sp,sp,-32
    80004b04:	00113c23          	sd	ra,24(sp)
    80004b08:	00813823          	sd	s0,16(sp)
    80004b0c:	00913423          	sd	s1,8(sp)
    80004b10:	02010413          	addi	s0,sp,32
    80004b14:	00050493          	mv	s1,a0
    80004b18:	0001d517          	auipc	a0,0x1d
    80004b1c:	cb050513          	addi	a0,a0,-848 # 800217c8 <itable>
    80004b20:	ffffc097          	auipc	ra,0xffffc
    80004b24:	4ac080e7          	jalr	1196(ra) # 80000fcc <acquire>
    80004b28:	0084a783          	lw	a5,8(s1)
    80004b2c:	0017879b          	addiw	a5,a5,1
    80004b30:	00f4a423          	sw	a5,8(s1)
    80004b34:	0001d517          	auipc	a0,0x1d
    80004b38:	c9450513          	addi	a0,a0,-876 # 800217c8 <itable>
    80004b3c:	ffffc097          	auipc	ra,0xffffc
    80004b40:	588080e7          	jalr	1416(ra) # 800010c4 <release>
    80004b44:	00048513          	mv	a0,s1
    80004b48:	01813083          	ld	ra,24(sp)
    80004b4c:	01013403          	ld	s0,16(sp)
    80004b50:	00813483          	ld	s1,8(sp)
    80004b54:	02010113          	addi	sp,sp,32
    80004b58:	00008067          	ret

0000000080004b5c <ilock>:
    80004b5c:	fe010113          	addi	sp,sp,-32
    80004b60:	00113c23          	sd	ra,24(sp)
    80004b64:	00813823          	sd	s0,16(sp)
    80004b68:	00913423          	sd	s1,8(sp)
    80004b6c:	01213023          	sd	s2,0(sp)
    80004b70:	02010413          	addi	s0,sp,32
    80004b74:	02050e63          	beqz	a0,80004bb0 <ilock+0x54>
    80004b78:	00050493          	mv	s1,a0
    80004b7c:	00852783          	lw	a5,8(a0)
    80004b80:	02f05863          	blez	a5,80004bb0 <ilock+0x54>
    80004b84:	01050513          	addi	a0,a0,16
    80004b88:	00001097          	auipc	ra,0x1
    80004b8c:	1b0080e7          	jalr	432(ra) # 80005d38 <acquiresleep>
    80004b90:	0404a783          	lw	a5,64(s1)
    80004b94:	02078663          	beqz	a5,80004bc0 <ilock+0x64>
    80004b98:	01813083          	ld	ra,24(sp)
    80004b9c:	01013403          	ld	s0,16(sp)
    80004ba0:	00813483          	ld	s1,8(sp)
    80004ba4:	00013903          	ld	s2,0(sp)
    80004ba8:	02010113          	addi	sp,sp,32
    80004bac:	00008067          	ret
    80004bb0:	00006517          	auipc	a0,0x6
    80004bb4:	a1850513          	addi	a0,a0,-1512 # 8000a5c8 <syscalls+0x180>
    80004bb8:	ffffc097          	auipc	ra,0xffffc
    80004bbc:	b18080e7          	jalr	-1256(ra) # 800006d0 <panic>
    80004bc0:	0044a783          	lw	a5,4(s1)
    80004bc4:	0047d79b          	srliw	a5,a5,0x4
    80004bc8:	0001d597          	auipc	a1,0x1d
    80004bcc:	bf85a583          	lw	a1,-1032(a1) # 800217c0 <sb+0x18>
    80004bd0:	00b785bb          	addw	a1,a5,a1
    80004bd4:	0004a503          	lw	a0,0(s1)
    80004bd8:	fffff097          	auipc	ra,0xfffff
    80004bdc:	4ac080e7          	jalr	1196(ra) # 80004084 <bread>
    80004be0:	00050913          	mv	s2,a0
    80004be4:	05850593          	addi	a1,a0,88
    80004be8:	0044a783          	lw	a5,4(s1)
    80004bec:	00f7f793          	andi	a5,a5,15
    80004bf0:	00679793          	slli	a5,a5,0x6
    80004bf4:	00f585b3          	add	a1,a1,a5
    80004bf8:	00059783          	lh	a5,0(a1)
    80004bfc:	04f49223          	sh	a5,68(s1)
    80004c00:	00259783          	lh	a5,2(a1)
    80004c04:	04f49323          	sh	a5,70(s1)
    80004c08:	00459783          	lh	a5,4(a1)
    80004c0c:	04f49423          	sh	a5,72(s1)
    80004c10:	00659783          	lh	a5,6(a1)
    80004c14:	04f49523          	sh	a5,74(s1)
    80004c18:	0085a783          	lw	a5,8(a1)
    80004c1c:	04f4a623          	sw	a5,76(s1)
    80004c20:	03400613          	li	a2,52
    80004c24:	00c58593          	addi	a1,a1,12
    80004c28:	05048513          	addi	a0,s1,80
    80004c2c:	ffffc097          	auipc	ra,0xffffc
    80004c30:	58c080e7          	jalr	1420(ra) # 800011b8 <memmove>
    80004c34:	00090513          	mv	a0,s2
    80004c38:	fffff097          	auipc	ra,0xfffff
    80004c3c:	5e8080e7          	jalr	1512(ra) # 80004220 <brelse>
